0x2162510:     ff010113     addi sp, sp, -16
0x2162514:     00000593     addi a1, zero, 0
0x2162518:     00812423     sw s0, 8(sp)
0x216251c:     00112623     sw ra, 12(sp)
0x2162520:     00050413     addi s0, a0, 0
0x2162524:     2dd000ef     jal ra, 2780
0x2162528:     d481a783     lw a5, -696(gp)
0x216252c:     00078463     beq a5, zero, 8
0x2162530:     000780e7     jalr ra, 0(a5)
0x2162534:     00040513     addi a0, s0, 0
0x2162538:     651010ef     jal ra, 7760
0x216253c:     00000793     addi a5, zero, 0
0x2162540:     00078863     beq a5, zero, 16
0x2162544:     00002517     auipc a0, 2
0x2162548:     d0c50513     addi a0, a0, -756
0x216254c:     3ed0006f     jal zero, 3052
0x2162550:     00008067     jalr zero, 0(ra)
0x2162554:     00003197     auipc gp, 3
0x2162558:     7c818193     addi gp, gp, 1992
0x216255c:     d4818513     addi a0, gp, -696
0x2162560:     07018613     addi a2, gp, 112
0x2162564:     40a60633     sub a2, a2, a0
0x2162568:     00000593     addi a1, zero, 0
0x216256c:     1b9000ef     jal ra, 2488
0x2162570:     00001517     auipc a0, 1
0x2162574:     bc850513     addi a0, a0, -1080
0x2162578:     00050863     beq a0, zero, 16
0x216257c:     00002517     auipc a0, 2
0x2162580:     cd450513     addi a0, a0, -812
0x2162584:     3b5000ef     jal ra, 2996
0x2162588:     109000ef     jal ra, 2312
0x216258c:     00012503     lw a0, 0(sp)
0x2162590:     00410593     addi a1, sp, 4
0x2162594:     00000613     addi a2, zero, 0
0x2162598:     074000ef     jal ra, 116
0x216259c:     f75ff06f     jal zero, -140
0x21625a0:     d641c783     lbu a5, -668(gp)
0x21625a4:     04079263     bne a5, zero, 68
0x21625a8:     00000793     addi a5, zero, 0
0x21625ac:     02078863     beq a5, zero, 48
0x21625b0:     ff010113     addi sp, sp, -16
0x21625b4:     00002517     auipc a0, 2
0x21625b8:     f5450513     addi a0, a0, -172
0x21625bc:     00112623     sw ra, 12(sp)
0x21625c0:     00000097     auipc ra, 0
0x21625c4:     000000e7     jalr ra, 0(zero)
0x21625c8:     00c12083     lw ra, 12(sp)
0x21625cc:     00100793     addi a5, zero, 1
0x21625d0:     d6f18223     sb a5, -668(gp)
0x21625d4:     01010113     addi sp, sp, 16
0x21625d8:     00008067     jalr zero, 0(ra)
0x21625dc:     00100793     addi a5, zero, 1
0x21625e0:     d6f18223     sb a5, -668(gp)
0x21625e4:     00008067     jalr zero, 0(ra)
0x21625e8:     00008067     jalr zero, 0(ra)
0x21625ec:     00000793     addi a5, zero, 0
0x21625f0:     00078c63     beq a5, zero, 24
0x21625f4:     d6818593     addi a1, gp, -664
0x21625f8:     00002517     auipc a0, 2
0x21625fc:     f1050513     addi a0, a0, -240
0x2162600:     00000317     auipc t1, 0
0x2162604:     00000067     jalr zero, 0(zero)
0x2162608:     00008067     jalr zero, 0(ra)
0x216260c:     fe010113     addi sp, sp, -32
0x2162610:     00112e23     sw ra, 28(sp)
0x2162614:     00812c23     sw s0, 24(sp)
0x2162618:     02010413     addi s0, sp, 32
0x216261c:     00500793     addi a5, zero, 5
0x2162620:     fef42623     sw a5, -20(s0)
0x2162624:     02000793     addi a5, zero, 32
0x2162628:     fef42423     sw a5, -24(s0)
0x216262c:     fec42703     lw a4, -20(s0)
0x2162630:     fe842783     lw a5, -24(s0)
0x2162634:     00f707b3     add a5, a4, a5
0x2162638:     fef42223     sw a5, -28(s0)
0x216263c:     fe442783     lw a5, -28(s0)
0x2162640:     00078513     addi a0, a5, 0
0x2162644:     01c12083     lw ra, 28(sp)
0x2162648:     01812403     lw s0, 24(sp)
0x216264c:     02010113     addi sp, sp, 32
0x2162650:     00008067     jalr zero, 0(ra)
0x2162654:     00000513     addi a0, zero, 0
0x2162658:     00008067     jalr zero, 0(ra)
0x216265c:     00003617     auipc a2, 3
0x2162660:     ec060613     addi a2, a2, -320
0x2162664:     00001597     auipc a1, 1
0x2162668:     72c58593     addi a1, a1, 1836
0x216266c:     00003517     auipc a0, 3
0x2162670:     ec050513     addi a0, a0, -320
0x2162674:     3480006f     jal zero, 840
0x2162678:     00452583     lw a1, 4(a0)
0x216267c:     ff010113     addi sp, sp, -16
0x2162680:     00812423     sw s0, 8(sp)
0x2162684:     00112623     sw ra, 12(sp)
0x2162688:     d8018793     addi a5, gp, -640
0x216268c:     00050413     addi s0, a0, 0
0x2162690:     00f58463     beq a1, a5, 8
0x2162694:     6fc010ef     jal ra, 5884
0x2162698:     00842583     lw a1, 8(s0)
0x216269c:     de818793     addi a5, gp, -536
0x21626a0:     00f58663     beq a1, a5, 12
0x21626a4:     00040513     addi a0, s0, 0
0x21626a8:     6e8010ef     jal ra, 5864
0x21626ac:     00c42583     lw a1, 12(s0)
0x21626b0:     e5018793     addi a5, gp, -432
0x21626b4:     00f58c63     beq a1, a5, 24
0x21626b8:     00040513     addi a0, s0, 0
0x21626bc:     00812403     lw s0, 8(sp)
0x21626c0:     00c12083     lw ra, 12(sp)
0x21626c4:     01010113     addi sp, sp, 16
0x21626c8:     6c80106f     jal zero, 5832
0x21626cc:     00c12083     lw ra, 12(sp)
0x21626d0:     00812403     lw s0, 8(sp)
0x21626d4:     01010113     addi sp, sp, 16
0x21626d8:     00008067     jalr zero, 0(ra)
0x21626dc:     00000513     addi a0, zero, 0
0x21626e0:     00008067     jalr zero, 0(ra)
0x21626e4:     fe010113     addi sp, sp, -32
0x21626e8:     00112e23     sw ra, 28(sp)
0x21626ec:     00812c23     sw s0, 24(sp)
0x21626f0:     00912a23     sw s1, 20(sp)
0x21626f4:     d8018413     addi s0, gp, -640
0x21626f8:     01212823     sw s2, 16(sp)
0x21626fc:     01312623     sw s3, 12(sp)
0x2162700:     01412423     sw s4, 8(sp)
0x2162704:     00000717     auipc a4, 0
0x2162708:     f5870713     addi a4, a4, -168
0x216270c:     00400793     addi a5, zero, 4
0x2162710:     00800613     addi a2, zero, 8
0x2162714:     00000593     addi a1, zero, 0
0x2162718:     ddc18513     addi a0, gp, -548
0x216271c:     d4e1a423     sw a4, -696(gp)
0x2162720:     00f42623     sw a5, 12(s0)
0x2162724:     00042023     sw zero, 0(s0)
0x2162728:     00042223     sw zero, 4(s0)
0x216272c:     00042423     sw zero, 8(s0)
0x2162730:     06042223     sw zero, 100(s0)
0x2162734:     00042823     sw zero, 16(s0)
0x2162738:     00042a23     sw zero, 20(s0)
0x216273c:     00042c23     sw zero, 24(s0)
0x2162740:     7e4000ef     jal ra, 2020
0x2162744:     000107b7     lui a5, 16
0x2162748:     00000a17     auipc s4, 0
0x216274c:     328a0a13     addi s4, s4, 808
0x2162750:     00000997     auipc s3, 0
0x2162754:     38498993     addi s3, s3, 900
0x2162758:     00000917     auipc s2, 0
0x216275c:     40490913     addi s2, s2, 1028
0x2162760:     00000497     auipc s1, 0
0x2162764:     46048493     addi s1, s1, 1120
0x2162768:     00978793     addi a5, a5, 9
0x216276c:     00800613     addi a2, zero, 8
0x2162770:     00000593     addi a1, zero, 0
0x2162774:     e4418513     addi a0, gp, -444
0x2162778:     06f42a23     sw a5, 116(s0)
0x216277c:     03442023     sw s4, 32(s0)
0x2162780:     03342223     sw s3, 36(s0)
0x2162784:     03242423     sw s2, 40(s0)
0x2162788:     02942623     sw s1, 44(s0)
0x216278c:     00842e23     sw s0, 28(s0)
0x2162790:     06042423     sw zero, 104(s0)
0x2162794:     06042623     sw zero, 108(s0)
0x2162798:     06042823     sw zero, 112(s0)
0x216279c:     0c042623     sw zero, 204(s0)
0x21627a0:     06042c23     sw zero, 120(s0)
0x21627a4:     06042e23     sw zero, 124(s0)
0x21627a8:     08042023     sw zero, 128(s0)
0x21627ac:     778000ef     jal ra, 1912
0x21627b0:     000207b7     lui a5, 32
0x21627b4:     01278793     addi a5, a5, 18
0x21627b8:     de818713     addi a4, gp, -536
0x21627bc:     00800613     addi a2, zero, 8
0x21627c0:     00000593     addi a1, zero, 0
0x21627c4:     eac18513     addi a0, gp, -340
0x21627c8:     09442423     sw s4, 136(s0)
0x21627cc:     09342623     sw s3, 140(s0)
0x21627d0:     09242823     sw s2, 144(s0)
0x21627d4:     08942a23     sw s1, 148(s0)
0x21627d8:     0cf42e23     sw a5, 220(s0)
0x21627dc:     0c042823     sw zero, 208(s0)
0x21627e0:     0c042a23     sw zero, 212(s0)
0x21627e4:     0c042c23     sw zero, 216(s0)
0x21627e8:     12042a23     sw zero, 308(s0)
0x21627ec:     0e042023     sw zero, 224(s0)
0x21627f0:     0e042223     sw zero, 228(s0)
0x21627f4:     0e042423     sw zero, 232(s0)
0x21627f8:     08e42223     sw a4, 132(s0)
0x21627fc:     728000ef     jal ra, 1832
0x2162800:     e5018793     addi a5, gp, -432
0x2162804:     0f442823     sw s4, 240(s0)
0x2162808:     0f342a23     sw s3, 244(s0)
0x216280c:     0f242c23     sw s2, 248(s0)
0x2162810:     0e942e23     sw s1, 252(s0)
0x2162814:     01c12083     lw ra, 28(sp)
0x2162818:     0ef42623     sw a5, 236(s0)
0x216281c:     01812403     lw s0, 24(sp)
0x2162820:     01412483     lw s1, 20(sp)
0x2162824:     01012903     lw s2, 16(sp)
0x2162828:     00c12983     lw s3, 12(sp)
0x216282c:     00812a03     lw s4, 8(sp)
0x2162830:     02010113     addi sp, sp, 32
0x2162834:     00008067     jalr zero, 0(ra)
0x2162838:     d481a783     lw a5, -696(gp)
0x216283c:     fe010113     addi sp, sp, -32
0x2162840:     01312623     sw s3, 12(sp)
0x2162844:     00112e23     sw ra, 28(sp)
0x2162848:     00812c23     sw s0, 24(sp)
0x216284c:     00912a23     sw s1, 20(sp)
0x2162850:     01212823     sw s2, 16(sp)
0x2162854:     00050993     addi s3, a0, 0
0x2162858:     0e078863     beq a5, zero, 240
0x216285c:     00003917     auipc s2, 3
0x2162860:     cc090913     addi s2, s2, -832
0x2162864:     fff00493     addi s1, zero, -1
0x2162868:     00492783     lw a5, 4(s2)
0x216286c:     00892403     lw s0, 8(s2)
0x2162870:     fff78793     addi a5, a5, -1
0x2162874:     0007d863     bge a5, zero, 16
0x2162878:     0800006f     jal zero, 128
0x216287c:     06840413     addi s0, s0, 104
0x2162880:     06978c63     beq a5, s1, 120
0x2162884:     00c41703     lh a4, 12(s0)
0x2162888:     fff78793     addi a5, a5, -1
0x216288c:     fe0718e3     bne a4, zero, -16
0x2162890:     ffff07b7     lui a5, -16
0x2162894:     00178793     addi a5, a5, 1
0x2162898:     06042223     sw zero, 100(s0)
0x216289c:     00042023     sw zero, 0(s0)
0x21628a0:     00042423     sw zero, 8(s0)
0x21628a4:     00042223     sw zero, 4(s0)
0x21628a8:     00042823     sw zero, 16(s0)
0x21628ac:     00042a23     sw zero, 20(s0)
0x21628b0:     00042c23     sw zero, 24(s0)
0x21628b4:     00f42623     sw a5, 12(s0)
0x21628b8:     00800613     addi a2, zero, 8
0x21628bc:     00000593     addi a1, zero, 0
0x21628c0:     05c40513     addi a0, s0, 92
0x21628c4:     660000ef     jal ra, 1632
0x21628c8:     02042823     sw zero, 48(s0)
0x21628cc:     02042a23     sw zero, 52(s0)
0x21628d0:     04042223     sw zero, 68(s0)
0x21628d4:     04042423     sw zero, 72(s0)
0x21628d8:     01c12083     lw ra, 28(sp)
0x21628dc:     00040513     addi a0, s0, 0
0x21628e0:     01812403     lw s0, 24(sp)
0x21628e4:     01412483     lw s1, 20(sp)
0x21628e8:     01012903     lw s2, 16(sp)
0x21628ec:     00c12983     lw s3, 12(sp)
0x21628f0:     02010113     addi sp, sp, 32
0x21628f4:     00008067     jalr zero, 0(ra)
0x21628f8:     00092403     lw s0, 0(s2)
0x21628fc:     00040663     beq s0, zero, 12
0x2162900:     00040913     addi s2, s0, 0
0x2162904:     f65ff06f     jal zero, -156
0x2162908:     1ac00593     addi a1, zero, 428
0x216290c:     00098513     addi a0, s3, 0
0x2162910:     465000ef     jal ra, 3172
0x2162914:     00050413     addi s0, a0, 0
0x2162918:     02050c63     beq a0, zero, 56
0x216291c:     00400793     addi a5, zero, 4
0x2162920:     00c50513     addi a0, a0, 12
0x2162924:     00042023     sw zero, 0(s0)
0x2162928:     00f42223     sw a5, 4(s0)
0x216292c:     00a42423     sw a0, 8(s0)
0x2162930:     1a000613     addi a2, zero, 416
0x2162934:     00000593     addi a1, zero, 0
0x2162938:     5ec000ef     jal ra, 1516
0x216293c:     00892023     sw s0, 0(s2)
0x2162940:     00040913     addi s2, s0, 0
0x2162944:     f25ff06f     jal zero, -220
0x2162948:     d9dff0ef     jal ra, -612
0x216294c:     f11ff06f     jal zero, -240
0x2162950:     00092023     sw zero, 0(s2)
0x2162954:     00c00793     addi a5, zero, 12
0x2162958:     00f9a023     sw a5, 0(s3)
0x216295c:     f7dff06f     jal zero, -132
0x2162960:     03452783     lw a5, 52(a0)
0x2162964:     00078463     beq a5, zero, 8
0x2162968:     00008067     jalr zero, 0(ra)
0x216296c:     d481a783     lw a5, -696(gp)
0x2162970:     00000717     auipc a4, 0
0x2162974:     d0870713     addi a4, a4, -760
0x2162978:     02e52a23     sw a4, 52(a0)
0x216297c:     fe0796e3     bne a5, zero, -20
0x2162980:     d65ff06f     jal zero, -668
0x2162984:     00008067     jalr zero, 0(ra)
0x2162988:     00008067     jalr zero, 0(ra)
0x216298c:     00003617     auipc a2, 3
0x2162990:     b9060613     addi a2, a2, -1136
0x2162994:     00000597     auipc a1, 0
0x2162998:     cc058593     addi a1, a1, -832
0x216299c:     00000513     addi a0, zero, 0
0x21629a0:     01c0006f     jal zero, 28
0x21629a4:     00003617     auipc a2, 3
0x21629a8:     b7860613     addi a2, a2, -1160
0x21629ac:     00000597     auipc a1, 0
0x21629b0:     d3058593     addi a1, a1, -720
0x21629b4:     00000513     addi a0, zero, 0
0x21629b8:     0040006f     jal zero, 4
0x21629bc:     fd010113     addi sp, sp, -48
0x21629c0:     03212023     sw s2, 32(sp)
0x21629c4:     01312e23     sw s3, 28(sp)
0x21629c8:     01412c23     sw s4, 24(sp)
0x21629cc:     01512a23     sw s5, 20(sp)
0x21629d0:     01612823     sw s6, 16(sp)
0x21629d4:     01712623     sw s7, 12(sp)
0x21629d8:     02112623     sw ra, 44(sp)
0x21629dc:     02812423     sw s0, 40(sp)
0x21629e0:     02912223     sw s1, 36(sp)
0x21629e4:     00050b13     addi s6, a0, 0
0x21629e8:     00058b93     addi s7, a1, 0
0x21629ec:     00060a93     addi s5, a2, 0
0x21629f0:     00000a13     addi s4, zero, 0
0x21629f4:     00100993     addi s3, zero, 1
0x21629f8:     fff00913     addi s2, zero, -1
0x21629fc:     004aa483     lw s1, 4(s5)
0x2162a00:     008aa403     lw s0, 8(s5)
0x2162a04:     fff48493     addi s1, s1, -1
0x2162a08:     0204c863     blt s1, zero, 48
0x2162a0c:     00c45783     lhu a5, 12(s0)
0x2162a10:     00f9fe63     bgeu s3, a5, 28
0x2162a14:     00e41783     lh a5, 14(s0)
0x2162a18:     00040593     addi a1, s0, 0
0x2162a1c:     000b0513     addi a0, s6, 0
0x2162a20:     01278663     beq a5, s2, 12
0x2162a24:     000b80e7     jalr ra, 0(s7)
0x2162a28:     00aa6a33     or s4, s4, a0
0x2162a2c:     fff48493     addi s1, s1, -1
0x2162a30:     06840413     addi s0, s0, 104
0x2162a34:     fd249ce3     bne s1, s2, -40
0x2162a38:     000aaa83     lw s5, 0(s5)
0x2162a3c:     fc0a90e3     bne s5, zero, -64
0x2162a40:     02c12083     lw ra, 44(sp)
0x2162a44:     02812403     lw s0, 40(sp)
0x2162a48:     02412483     lw s1, 36(sp)
0x2162a4c:     02012903     lw s2, 32(sp)
0x2162a50:     01c12983     lw s3, 28(sp)
0x2162a54:     01412a83     lw s5, 20(sp)
0x2162a58:     01012b03     lw s6, 16(sp)
0x2162a5c:     00c12b83     lw s7, 12(sp)
0x2162a60:     000a0513     addi a0, s4, 0
0x2162a64:     01812a03     lw s4, 24(sp)
0x2162a68:     03010113     addi sp, sp, 48
0x2162a6c:     00008067     jalr zero, 0(ra)
0x2162a70:     ff010113     addi sp, sp, -16
0x2162a74:     00812423     sw s0, 8(sp)
0x2162a78:     00058413     addi s0, a1, 0
0x2162a7c:     00e59583     lh a1, 14(a1)
0x2162a80:     00112623     sw ra, 12(sp)
0x2162a84:     314000ef     jal ra, 788
0x2162a88:     02054063     blt a0, zero, 32
0x2162a8c:     05042783     lw a5, 80(s0)
0x2162a90:     00c12083     lw ra, 12(sp)
0x2162a94:     00a787b3     add a5, a5, a0
0x2162a98:     04f42823     sw a5, 80(s0)
0x2162a9c:     00812403     lw s0, 8(sp)
0x2162aa0:     01010113     addi sp, sp, 16
0x2162aa4:     00008067     jalr zero, 0(ra)
0x2162aa8:     00c45783     lhu a5, 12(s0)
0x2162aac:     fffff737     lui a4, -1
0x2162ab0:     fff70713     addi a4, a4, -1
0x2162ab4:     00e7f7b3     and a5, a5, a4
0x2162ab8:     00c12083     lw ra, 12(sp)
0x2162abc:     00f41623     sh a5, 12(s0)
0x2162ac0:     00812403     lw s0, 8(sp)
0x2162ac4:     01010113     addi sp, sp, 16
0x2162ac8:     00008067     jalr zero, 0(ra)
0x2162acc:     00000513     addi a0, zero, 0
0x2162ad0:     00008067     jalr zero, 0(ra)
0x2162ad4:     00c59783     lh a5, 12(a1)
0x2162ad8:     fe010113     addi sp, sp, -32
0x2162adc:     00812c23     sw s0, 24(sp)
0x2162ae0:     00912a23     sw s1, 20(sp)
0x2162ae4:     01212823     sw s2, 16(sp)
0x2162ae8:     01312623     sw s3, 12(sp)
0x2162aec:     00112e23     sw ra, 28(sp)
0x2162af0:     1007f713     andi a4, a5, 256
0x2162af4:     00058413     addi s0, a1, 0
0x2162af8:     00060913     addi s2, a2, 0
0x2162afc:     00068993     addi s3, a3, 0
0x2162b00:     00050493     addi s1, a0, 0
0x2162b04:     04071063     bne a4, zero, 64
0x2162b08:     fffff737     lui a4, -1
0x2162b0c:     fff70713     addi a4, a4, -1
0x2162b10:     00e7f7b3     and a5, a5, a4
0x2162b14:     00e41583     lh a1, 14(s0)
0x2162b18:     00f41623     sh a5, 12(s0)
0x2162b1c:     01812403     lw s0, 24(sp)
0x2162b20:     01c12083     lw ra, 28(sp)
0x2162b24:     00098693     addi a3, s3, 0
0x2162b28:     00090613     addi a2, s2, 0
0x2162b2c:     00c12983     lw s3, 12(sp)
0x2162b30:     01012903     lw s2, 16(sp)
0x2162b34:     00048513     addi a0, s1, 0
0x2162b38:     01412483     lw s1, 20(sp)
0x2162b3c:     02010113     addi sp, sp, 32
0x2162b40:     2d40006f     jal zero, 724
0x2162b44:     00e59583     lh a1, 14(a1)
0x2162b48:     00200693     addi a3, zero, 2
0x2162b4c:     00000613     addi a2, zero, 0
0x2162b50:     1cc000ef     jal ra, 460
0x2162b54:     00c41783     lh a5, 12(s0)
0x2162b58:     fb1ff06f     jal zero, -80
0x2162b5c:     ff010113     addi sp, sp, -16
0x2162b60:     00812423     sw s0, 8(sp)
0x2162b64:     00058413     addi s0, a1, 0
0x2162b68:     00e59583     lh a1, 14(a1)
0x2162b6c:     00112623     sw ra, 12(sp)
0x2162b70:     1ac000ef     jal ra, 428
0x2162b74:     fff00713     addi a4, zero, -1
0x2162b78:     00c41783     lh a5, 12(s0)
0x2162b7c:     02e50263     beq a0, a4, 36
0x2162b80:     00001737     lui a4, 1
0x2162b84:     00e7e7b3     or a5, a5, a4
0x2162b88:     00c12083     lw ra, 12(sp)
0x2162b8c:     04a42823     sw a0, 80(s0)
0x2162b90:     00f41623     sh a5, 12(s0)
0x2162b94:     00812403     lw s0, 8(sp)
0x2162b98:     01010113     addi sp, sp, 16
0x2162b9c:     00008067     jalr zero, 0(ra)
0x2162ba0:     fffff737     lui a4, -1
0x2162ba4:     fff70713     addi a4, a4, -1
0x2162ba8:     00e7f7b3     and a5, a5, a4
0x2162bac:     00c12083     lw ra, 12(sp)
0x2162bb0:     00f41623     sh a5, 12(s0)
0x2162bb4:     00812403     lw s0, 8(sp)
0x2162bb8:     01010113     addi sp, sp, 16
0x2162bbc:     00008067     jalr zero, 0(ra)
0x2162bc0:     00e59583     lh a1, 14(a1)
0x2162bc4:     0040006f     jal zero, 4
0x2162bc8:     ff010113     addi sp, sp, -16
0x2162bcc:     00812423     sw s0, 8(sp)
0x2162bd0:     00050413     addi s0, a0, 0
0x2162bd4:     00058513     addi a0, a1, 0
0x2162bd8:     d401a623     sw zero, -692(gp)
0x2162bdc:     00112623     sw ra, 12(sp)
0x2162be0:     764010ef     jal ra, 5988
0x2162be4:     fff00793     addi a5, zero, -1
0x2162be8:     00f50a63     beq a0, a5, 20
0x2162bec:     00c12083     lw ra, 12(sp)
0x2162bf0:     00812403     lw s0, 8(sp)
0x2162bf4:     01010113     addi sp, sp, 16
0x2162bf8:     00008067     jalr zero, 0(ra)
0x2162bfc:     00912223     sw s1, 4(sp)
0x2162c00:     d4c18493     addi s1, gp, -692
0x2162c04:     0004a783     lw a5, 0(s1)
0x2162c08:     00078e63     beq a5, zero, 28
0x2162c0c:     00c12083     lw ra, 12(sp)
0x2162c10:     00f42023     sw a5, 0(s0)
0x2162c14:     00812403     lw s0, 8(sp)
0x2162c18:     00412483     lw s1, 4(sp)
0x2162c1c:     01010113     addi sp, sp, 16
0x2162c20:     00008067     jalr zero, 0(ra)
0x2162c24:     00c12083     lw ra, 12(sp)
0x2162c28:     00812403     lw s0, 8(sp)
0x2162c2c:     00412483     lw s1, 4(sp)
0x2162c30:     01010113     addi sp, sp, 16
0x2162c34:     00008067     jalr zero, 0(ra)
0x2162c38:     d3c1a783     lw a5, -708(gp)
0x2162c3c:     0ca78e63     beq a5, a0, 220
0x2162c40:     04452583     lw a1, 68(a0)
0x2162c44:     fe010113     addi sp, sp, -32
0x2162c48:     00912a23     sw s1, 20(sp)
0x2162c4c:     00112e23     sw ra, 28(sp)
0x2162c50:     00812c23     sw s0, 24(sp)
0x2162c54:     00050493     addi s1, a0, 0
0x2162c58:     04058863     beq a1, zero, 80
0x2162c5c:     01212823     sw s2, 16(sp)
0x2162c60:     01312623     sw s3, 12(sp)
0x2162c64:     00000913     addi s2, zero, 0
0x2162c68:     08000993     addi s3, zero, 128
0x2162c6c:     012587b3     add a5, a1, s2
0x2162c70:     0007a403     lw s0, 0(a5)
0x2162c74:     00040e63     beq s0, zero, 28
0x2162c78:     00040593     addi a1, s0, 0
0x2162c7c:     00042403     lw s0, 0(s0)
0x2162c80:     00048513     addi a0, s1, 0
0x2162c84:     600000ef     jal ra, 1536
0x2162c88:     fe0418e3     bne s0, zero, -16
0x2162c8c:     0444a583     lw a1, 68(s1)
0x2162c90:     00490913     addi s2, s2, 4
0x2162c94:     fd391ce3     bne s2, s3, -40
0x2162c98:     00048513     addi a0, s1, 0
0x2162c9c:     5e8000ef     jal ra, 1512
0x2162ca0:     01012903     lw s2, 16(sp)
0x2162ca4:     00c12983     lw s3, 12(sp)
0x2162ca8:     0384a583     lw a1, 56(s1)
0x2162cac:     00058663     beq a1, zero, 12
0x2162cb0:     00048513     addi a0, s1, 0
0x2162cb4:     5d0000ef     jal ra, 1488
0x2162cb8:     0404a403     lw s0, 64(s1)
0x2162cbc:     00040c63     beq s0, zero, 24
0x2162cc0:     00040593     addi a1, s0, 0
0x2162cc4:     00042403     lw s0, 0(s0)
0x2162cc8:     00048513     addi a0, s1, 0
0x2162ccc:     5b8000ef     jal ra, 1464
0x2162cd0:     fe0418e3     bne s0, zero, -16
0x2162cd4:     04c4a583     lw a1, 76(s1)
0x2162cd8:     00058663     beq a1, zero, 12
0x2162cdc:     00048513     addi a0, s1, 0
0x2162ce0:     5a4000ef     jal ra, 1444
0x2162ce4:     0344a783     lw a5, 52(s1)
0x2162ce8:     00078e63     beq a5, zero, 28
0x2162cec:     01812403     lw s0, 24(sp)
0x2162cf0:     01c12083     lw ra, 28(sp)
0x2162cf4:     00048513     addi a0, s1, 0
0x2162cf8:     01412483     lw s1, 20(sp)
0x2162cfc:     02010113     addi sp, sp, 32
0x2162d00:     00078067     jalr zero, 0(a5)
0x2162d04:     01c12083     lw ra, 28(sp)
0x2162d08:     01812403     lw s0, 24(sp)
0x2162d0c:     01412483     lw s1, 20(sp)
0x2162d10:     02010113     addi sp, sp, 32
0x2162d14:     00008067     jalr zero, 0(ra)
0x2162d18:     00008067     jalr zero, 0(ra)
0x2162d1c:     ff010113     addi sp, sp, -16
0x2162d20:     00058713     addi a4, a1, 0
0x2162d24:     00812423     sw s0, 8(sp)
0x2162d28:     00060593     addi a1, a2, 0
0x2162d2c:     00050413     addi s0, a0, 0
0x2162d30:     00068613     addi a2, a3, 0
0x2162d34:     00070513     addi a0, a4, 0
0x2162d38:     d401a623     sw zero, -692(gp)
0x2162d3c:     00112623     sw ra, 12(sp)
0x2162d40:     678010ef     jal ra, 5752
0x2162d44:     fff00793     addi a5, zero, -1
0x2162d48:     00f50a63     beq a0, a5, 20
0x2162d4c:     00c12083     lw ra, 12(sp)
0x2162d50:     00812403     lw s0, 8(sp)
0x2162d54:     01010113     addi sp, sp, 16
0x2162d58:     00008067     jalr zero, 0(ra)
0x2162d5c:     00912223     sw s1, 4(sp)
0x2162d60:     d4c18493     addi s1, gp, -692
0x2162d64:     0004a783     lw a5, 0(s1)
0x2162d68:     00078e63     beq a5, zero, 28
0x2162d6c:     00c12083     lw ra, 12(sp)
0x2162d70:     00f42023     sw a5, 0(s0)
0x2162d74:     00812403     lw s0, 8(sp)
0x2162d78:     00412483     lw s1, 4(sp)
0x2162d7c:     01010113     addi sp, sp, 16
0x2162d80:     00008067     jalr zero, 0(ra)
0x2162d84:     00c12083     lw ra, 12(sp)
0x2162d88:     00812403     lw s0, 8(sp)
0x2162d8c:     00412483     lw s1, 4(sp)
0x2162d90:     01010113     addi sp, sp, 16
0x2162d94:     00008067     jalr zero, 0(ra)
0x2162d98:     ff010113     addi sp, sp, -16
0x2162d9c:     00058713     addi a4, a1, 0
0x2162da0:     00812423     sw s0, 8(sp)
0x2162da4:     00060593     addi a1, a2, 0
0x2162da8:     00050413     addi s0, a0, 0
0x2162dac:     00068613     addi a2, a3, 0
0x2162db0:     00070513     addi a0, a4, 0
0x2162db4:     d401a623     sw zero, -692(gp)
0x2162db8:     00112623     sw ra, 12(sp)
0x2162dbc:     640010ef     jal ra, 5696
0x2162dc0:     fff00793     addi a5, zero, -1
0x2162dc4:     00f50a63     beq a0, a5, 20
0x2162dc8:     00c12083     lw ra, 12(sp)
0x2162dcc:     00812403     lw s0, 8(sp)
0x2162dd0:     01010113     addi sp, sp, 16
0x2162dd4:     00008067     jalr zero, 0(ra)
0x2162dd8:     00912223     sw s1, 4(sp)
0x2162ddc:     d4c18493     addi s1, gp, -692
0x2162de0:     0004a783     lw a5, 0(s1)
0x2162de4:     00078e63     beq a5, zero, 28
0x2162de8:     00c12083     lw ra, 12(sp)
0x2162dec:     00f42023     sw a5, 0(s0)
0x2162df0:     00812403     lw s0, 8(sp)
0x2162df4:     00412483     lw s1, 4(sp)
0x2162df8:     01010113     addi sp, sp, 16
0x2162dfc:     00008067     jalr zero, 0(ra)
0x2162e00:     00c12083     lw ra, 12(sp)
0x2162e04:     00812403     lw s0, 8(sp)
0x2162e08:     00412483     lw s1, 4(sp)
0x2162e0c:     01010113     addi sp, sp, 16
0x2162e10:     00008067     jalr zero, 0(ra)
0x2162e14:     ff010113     addi sp, sp, -16
0x2162e18:     00058713     addi a4, a1, 0
0x2162e1c:     00812423     sw s0, 8(sp)
0x2162e20:     00060593     addi a1, a2, 0
0x2162e24:     00050413     addi s0, a0, 0
0x2162e28:     00068613     addi a2, a3, 0
0x2162e2c:     00070513     addi a0, a4, 0
0x2162e30:     d401a623     sw zero, -692(gp)
0x2162e34:     00112623     sw ra, 12(sp)
0x2162e38:     684010ef     jal ra, 5764
0x2162e3c:     fff00793     addi a5, zero, -1
0x2162e40:     00f50a63     beq a0, a5, 20
0x2162e44:     00c12083     lw ra, 12(sp)
0x2162e48:     00812403     lw s0, 8(sp)
0x2162e4c:     01010113     addi sp, sp, 16
0x2162e50:     00008067     jalr zero, 0(ra)
0x2162e54:     00912223     sw s1, 4(sp)
0x2162e58:     d4c18493     addi s1, gp, -692
0x2162e5c:     0004a783     lw a5, 0(s1)
0x2162e60:     00078e63     beq a5, zero, 28
0x2162e64:     00c12083     lw ra, 12(sp)
0x2162e68:     00f42023     sw a5, 0(s0)
0x2162e6c:     00812403     lw s0, 8(sp)
0x2162e70:     00412483     lw s1, 4(sp)
0x2162e74:     01010113     addi sp, sp, 16
0x2162e78:     00008067     jalr zero, 0(ra)
0x2162e7c:     00c12083     lw ra, 12(sp)
0x2162e80:     00812403     lw s0, 8(sp)
0x2162e84:     00412483     lw s1, 4(sp)
0x2162e88:     01010113     addi sp, sp, 16
0x2162e8c:     00008067     jalr zero, 0(ra)
0x2162e90:     ff010113     addi sp, sp, -16
0x2162e94:     00812423     sw s0, 8(sp)
0x2162e98:     01212023     sw s2, 0(sp)
0x2162e9c:     00002797     auipc a5, 2
0x2162ea0:     67078793     addi a5, a5, 1648
0x2162ea4:     00002417     auipc s0, 2
0x2162ea8:     66840413     addi s0, s0, 1640
0x2162eac:     00112623     sw ra, 12(sp)
0x2162eb0:     00912223     sw s1, 4(sp)
0x2162eb4:     40878933     sub s2, a5, s0
0x2162eb8:     02878063     beq a5, s0, 32
0x2162ebc:     40295913     srli s2, s2, 1026
0x2162ec0:     00000493     addi s1, zero, 0
0x2162ec4:     00042783     lw a5, 0(s0)
0x2162ec8:     00148493     addi s1, s1, 1
0x2162ecc:     00440413     addi s0, s0, 4
0x2162ed0:     000780e7     jalr ra, 0(a5)
0x2162ed4:     ff24e8e3     bltu s1, s2, -16
0x2162ed8:     00002797     auipc a5, 2
0x2162edc:     63c78793     addi a5, a5, 1596
0x2162ee0:     00002417     auipc s0, 2
0x2162ee4:     62c40413     addi s0, s0, 1580
0x2162ee8:     40878933     sub s2, a5, s0
0x2162eec:     40295913     srli s2, s2, 1026
0x2162ef0:     00878e63     beq a5, s0, 28
0x2162ef4:     00000493     addi s1, zero, 0
0x2162ef8:     00042783     lw a5, 0(s0)
0x2162efc:     00148493     addi s1, s1, 1
0x2162f00:     00440413     addi s0, s0, 4
0x2162f04:     000780e7     jalr ra, 0(a5)
0x2162f08:     ff24e8e3     bltu s1, s2, -16
0x2162f0c:     00c12083     lw ra, 12(sp)
0x2162f10:     00812403     lw s0, 8(sp)
0x2162f14:     00412483     lw s1, 4(sp)
0x2162f18:     00012903     lw s2, 0(sp)
0x2162f1c:     01010113     addi sp, sp, 16
0x2162f20:     00008067     jalr zero, 0(ra)
0x2162f24:     00f00313     addi t1, zero, 15
0x2162f28:     00050713     addi a4, a0, 0
0x2162f2c:     02c37e63     bgeu t1, a2, 60
0x2162f30:     00f77793     andi a5, a4, 15
0x2162f34:     0a079063     bne a5, zero, 160
0x2162f38:     08059263     bne a1, zero, 132
0x2162f3c:     ff067693     andi a3, a2, -16
0x2162f40:     00f67613     andi a2, a2, 15
0x2162f44:     00e686b3     add a3, a3, a4
0x2162f48:     00b72023     sw a1, 0(a4)
0x2162f4c:     00b72223     sw a1, 4(a4)
0x2162f50:     00b72423     sw a1, 8(a4)
0x2162f54:     00b72623     sw a1, 12(a4)
0x2162f58:     01070713     addi a4, a4, 16
0x2162f5c:     fed766e3     bltu a4, a3, -20
0x2162f60:     00061463     bne a2, zero, 8
0x2162f64:     00008067     jalr zero, 0(ra)
0x2162f68:     40c306b3     sub a3, t1, a2
0x2162f6c:     00269693     slli a3, a3, 2
0x2162f70:     00000297     auipc t0, 0
0x2162f74:     005686b3     add a3, a3, t0
0x2162f78:     00c68067     jalr zero, 12(a3)
0x2162f7c:     00b70723     sb a1, 14(a4)
0x2162f80:     00b706a3     sb a1, 13(a4)
0x2162f84:     00b70623     sb a1, 12(a4)
0x2162f88:     00b705a3     sb a1, 11(a4)
0x2162f8c:     00b70523     sb a1, 10(a4)
0x2162f90:     00b704a3     sb a1, 9(a4)
0x2162f94:     00b70423     sb a1, 8(a4)
0x2162f98:     00b703a3     sb a1, 7(a4)
0x2162f9c:     00b70323     sb a1, 6(a4)
0x2162fa0:     00b702a3     sb a1, 5(a4)
0x2162fa4:     00b70223     sb a1, 4(a4)
0x2162fa8:     00b701a3     sb a1, 3(a4)
0x2162fac:     00b70123     sb a1, 2(a4)
0x2162fb0:     00b700a3     sb a1, 1(a4)
0x2162fb4:     00b70023     sb a1, 0(a4)
0x2162fb8:     00008067     jalr zero, 0(ra)
0x2162fbc:     0ff5f593     andi a1, a1, 255
0x2162fc0:     00859693     slli a3, a1, 8
0x2162fc4:     00d5e5b3     or a1, a1, a3
0x2162fc8:     01059693     slli a3, a1, 16
0x2162fcc:     00d5e5b3     or a1, a1, a3
0x2162fd0:     f6dff06f     jal zero, -148
0x2162fd4:     00279693     slli a3, a5, 2
0x2162fd8:     00000297     auipc t0, 0
0x2162fdc:     005686b3     add a3, a3, t0
0x2162fe0:     00008293     addi t0, ra, 0
0x2162fe4:     fa0680e7     jalr ra, -96(a3)
0x2162fe8:     00028093     addi ra, t0, 0
0x2162fec:     ff078793     addi a5, a5, -16
0x2162ff0:     40f70733     sub a4, a4, a5
0x2162ff4:     00f60633     add a2, a2, a5
0x2162ff8:     f6c378e3     bgeu t1, a2, -144
0x2162ffc:     f3dff06f     jal zero, -196
0x2163000:     fd010113     addi sp, sp, -48
0x2163004:     01412c23     sw s4, 24(sp)
0x2163008:     d5018a13     addi s4, gp, -688
0x216300c:     03212023     sw s2, 32(sp)
0x2163010:     000a2903     lw s2, 0(s4)
0x2163014:     02112623     sw ra, 44(sp)
0x2163018:     06090c63     beq s2, zero, 120
0x216301c:     01312e23     sw s3, 28(sp)
0x2163020:     01512a23     sw s5, 20(sp)
0x2163024:     01612823     sw s6, 16(sp)
0x2163028:     01712623     sw s7, 12(sp)
0x216302c:     02812423     sw s0, 40(sp)
0x2163030:     02912223     sw s1, 36(sp)
0x2163034:     01812423     sw s8, 8(sp)
0x2163038:     00050b13     addi s6, a0, 0
0x216303c:     00058b93     addi s7, a1, 0
0x2163040:     fff00993     addi s3, zero, -1
0x2163044:     00100a93     addi s5, zero, 1
0x2163048:     00492483     lw s1, 4(s2)
0x216304c:     fff48413     addi s0, s1, -1
0x2163050:     02044263     blt s0, zero, 36
0x2163054:     00249493     slli s1, s1, 2
0x2163058:     009904b3     add s1, s2, s1
0x216305c:     040b8463     beq s7, zero, 72
0x2163060:     1044a783     lw a5, 260(s1)
0x2163064:     05778063     beq a5, s7, 64
0x2163068:     fff40413     addi s0, s0, -1
0x216306c:     ffc48493     addi s1, s1, -4
0x2163070:     ff3418e3     bne s0, s3, -16
0x2163074:     02812403     lw s0, 40(sp)
0x2163078:     02412483     lw s1, 36(sp)
0x216307c:     01c12983     lw s3, 28(sp)
0x2163080:     01412a83     lw s5, 20(sp)
0x2163084:     01012b03     lw s6, 16(sp)
0x2163088:     00c12b83     lw s7, 12(sp)
0x216308c:     00812c03     lw s8, 8(sp)
0x2163090:     02c12083     lw ra, 44(sp)
0x2163094:     02012903     lw s2, 32(sp)
0x2163098:     01812a03     lw s4, 24(sp)
0x216309c:     03010113     addi sp, sp, 48
0x21630a0:     00008067     jalr zero, 0(ra)
0x21630a4:     00492783     lw a5, 4(s2)
0x21630a8:     0044a683     lw a3, 4(s1)
0x21630ac:     fff78793     addi a5, a5, -1
0x21630b0:     06878a63     beq a5, s0, 116
0x21630b4:     0004a223     sw zero, 4(s1)
0x21630b8:     02068663     beq a3, zero, 44
0x21630bc:     18892783     lw a5, 392(s2)
0x21630c0:     008a9733     sll a4, s5, s0
0x21630c4:     00492c03     lw s8, 4(s2)
0x21630c8:     00f777b3     and a5, a4, a5
0x21630cc:     02079463     bne a5, zero, 40
0x21630d0:     000680e7     jalr ra, 0(a3)
0x21630d4:     00492703     lw a4, 4(s2)
0x21630d8:     000a2783     lw a5, 0(s4)
0x21630dc:     03871e63     bne a4, s8, 60
0x21630e0:     03279c63     bne a5, s2, 56
0x21630e4:     fff40413     addi s0, s0, -1
0x21630e8:     ffc48493     addi s1, s1, -4
0x21630ec:     f73418e3     bne s0, s3, -144
0x21630f0:     f85ff06f     jal zero, -124
0x21630f4:     18c92783     lw a5, 396(s2)
0x21630f8:     0844a583     lw a1, 132(s1)
0x21630fc:     00f77733     and a4, a4, a5
0x2163100:     02071663     bne a4, zero, 44
0x2163104:     000b0513     addi a0, s6, 0
0x2163108:     000680e7     jalr ra, 0(a3)
0x216310c:     00492703     lw a4, 4(s2)
0x2163110:     000a2783     lw a5, 0(s4)
0x2163114:     fd8706e3     beq a4, s8, -52
0x2163118:     f4078ee3     beq a5, zero, -164
0x216311c:     00078913     addi s2, a5, 0
0x2163120:     f29ff06f     jal zero, -216
0x2163124:     00892223     sw s0, 4(s2)
0x2163128:     f91ff06f     jal zero, -112
0x216312c:     00058513     addi a0, a1, 0
0x2163130:     000680e7     jalr ra, 0(a3)
0x2163134:     fa1ff06f     jal zero, -96
0x2163138:     00050593     addi a1, a0, 0
0x216313c:     00000693     addi a3, zero, 0
0x2163140:     00000613     addi a2, zero, 0
0x2163144:     00000513     addi a0, zero, 0
0x2163148:     1640106f     jal zero, 4452
0x216314c:     fe010113     addi sp, sp, -32
0x2163150:     00812c23     sw s0, 24(sp)
0x2163154:     00912a23     sw s1, 20(sp)
0x2163158:     01212823     sw s2, 16(sp)
0x216315c:     01312623     sw s3, 12(sp)
0x2163160:     01412423     sw s4, 8(sp)
0x2163164:     00058993     addi s3, a1, 0
0x2163168:     00112e23     sw ra, 28(sp)
0x216316c:     00050913     addi s2, a0, 0
0x2163170:     00002a17     auipc s4, 2
0x2163174:     4dca0a13     addi s4, s4, 1244
0x2163178:     411000ef     jal ra, 3088
0x216317c:     008a2783     lw a5, 8(s4)
0x2163180:     00001437     lui s0, 1
0x2163184:     fef40413     addi s0, s0, -17
0x2163188:     0047a483     lw s1, 4(a5)
0x216318c:     000017b7     lui a5, 1
0x2163190:     ffc4f493     andi s1, s1, -4
0x2163194:     00848433     add s0, s1, s0
0x2163198:     41340433     sub s0, s0, s3
0x216319c:     00c45413     srli s0, s0, 12
0x21631a0:     fff40413     addi s0, s0, -1
0x21631a4:     00c41413     slli s0, s0, 12
0x21631a8:     00f44e63     blt s0, a5, 28
0x21631ac:     00000593     addi a1, zero, 0
0x21631b0:     00090513     addi a0, s2, 0
0x21631b4:     02c010ef     jal ra, 4140
0x21631b8:     008a2783     lw a5, 8(s4)
0x21631bc:     009787b3     add a5, a5, s1
0x21631c0:     02f50863     beq a0, a5, 48
0x21631c4:     00090513     addi a0, s2, 0
0x21631c8:     3c5000ef     jal ra, 3012
0x21631cc:     01c12083     lw ra, 28(sp)
0x21631d0:     01812403     lw s0, 24(sp)
0x21631d4:     01412483     lw s1, 20(sp)
0x21631d8:     01012903     lw s2, 16(sp)
0x21631dc:     00c12983     lw s3, 12(sp)
0x21631e0:     00812a03     lw s4, 8(sp)
0x21631e4:     00000513     addi a0, zero, 0
0x21631e8:     02010113     addi sp, sp, 32
0x21631ec:     00008067     jalr zero, 0(ra)
0x21631f0:     408005b3     sub a1, zero, s0
0x21631f4:     00090513     addi a0, s2, 0
0x21631f8:     7e9000ef     jal ra, 4072
0x21631fc:     fff00793     addi a5, zero, -1
0x2163200:     04f50863     beq a0, a5, 80
0x2163204:     eb818713     addi a4, gp, -328
0x2163208:     008a2683     lw a3, 8(s4)
0x216320c:     00072783     lw a5, 0(a4)
0x2163210:     408484b3     sub s1, s1, s0
0x2163214:     0014e493     or s1, s1, 1
0x2163218:     00090513     addi a0, s2, 0
0x216321c:     408787b3     sub a5, a5, s0
0x2163220:     0096a223     sw s1, 4(a3)
0x2163224:     00f72023     sw a5, 0(a4)
0x2163228:     365000ef     jal ra, 2916
0x216322c:     01c12083     lw ra, 28(sp)
0x2163230:     01812403     lw s0, 24(sp)
0x2163234:     01412483     lw s1, 20(sp)
0x2163238:     01012903     lw s2, 16(sp)
0x216323c:     00c12983     lw s3, 12(sp)
0x2163240:     00812a03     lw s4, 8(sp)
0x2163244:     00100513     addi a0, zero, 1
0x2163248:     02010113     addi sp, sp, 32
0x216324c:     00008067     jalr zero, 0(ra)
0x2163250:     00000593     addi a1, zero, 0
0x2163254:     00090513     addi a0, s2, 0
0x2163258:     789000ef     jal ra, 3976
0x216325c:     008a2703     lw a4, 8(s4)
0x2163260:     00f00693     addi a3, zero, 15
0x2163264:     40e507b3     sub a5, a0, a4
0x2163268:     f4f6dee3     bge a3, a5, -164
0x216326c:     d401a683     lw a3, -704(gp)
0x2163270:     0017e793     or a5, a5, 1
0x2163274:     00f72223     sw a5, 4(a4)
0x2163278:     40d50533     sub a0, a0, a3
0x216327c:     eaa1ac23     sw a0, -328(gp)
0x2163280:     f45ff06f     jal zero, -188
0x2163284:     12058663     beq a1, zero, 300
0x2163288:     ff010113     addi sp, sp, -16
0x216328c:     00812423     sw s0, 8(sp)
0x2163290:     00912223     sw s1, 4(sp)
0x2163294:     00058413     addi s0, a1, 0
0x2163298:     00050493     addi s1, a0, 0
0x216329c:     00112623     sw ra, 12(sp)
0x21632a0:     2e9000ef     jal ra, 2792
0x21632a4:     ffc42583     lw a1, -4(s0)
0x21632a8:     ff840713     addi a4, s0, -8
0x21632ac:     00002817     auipc a6, 2
0x21632b0:     3a080813     addi a6, a6, 928
0x21632b4:     ffe5f793     andi a5, a1, -2
0x21632b8:     00f70633     add a2, a4, a5
0x21632bc:     00462683     lw a3, 4(a2)
0x21632c0:     00882503     lw a0, 8(a6)
0x21632c4:     0015f893     andi a7, a1, 1
0x21632c8:     ffc6f693     andi a3, a3, -4
0x21632cc:     18c50c63     beq a0, a2, 408
0x21632d0:     00d62223     sw a3, 4(a2)
0x21632d4:     00d60533     add a0, a2, a3
0x21632d8:     00452503     lw a0, 4(a0)
0x21632dc:     00157513     andi a0, a0, 1
0x21632e0:     08089c63     bne a7, zero, 152
0x21632e4:     ff842303     lw t1, -8(s0)
0x21632e8:     00002897     auipc a7, 2
0x21632ec:     36c88893     addi a7, a7, 876
0x21632f0:     40670733     sub a4, a4, t1
0x21632f4:     00872583     lw a1, 8(a4)
0x21632f8:     006787b3     add a5, a5, t1
0x21632fc:     13158e63     beq a1, a7, 316
0x2163300:     00c72303     lw t1, 12(a4)
0x2163304:     0065a623     sw t1, 12(a1)
0x2163308:     00b32423     sw a1, 8(t1)
0x216330c:     1a050063     beq a0, zero, 416
0x2163310:     0017e693     or a3, a5, 1
0x2163314:     00d72223     sw a3, 4(a4)
0x2163318:     00f62023     sw a5, 0(a2)
0x216331c:     1ff00693     addi a3, zero, 511
0x2163320:     0af6e463     bltu a3, a5, 168
0x2163324:     ff87f693     andi a3, a5, -8
0x2163328:     00868693     addi a3, a3, 8
0x216332c:     00482583     lw a1, 4(a6)
0x2163330:     00d806b3     add a3, a6, a3
0x2163334:     0006a603     lw a2, 0(a3)
0x2163338:     0057d513     srli a0, a5, 5
0x216333c:     00100793     addi a5, zero, 1
0x2163340:     00a797b3     sll a5, a5, a0
0x2163344:     00b7e7b3     or a5, a5, a1
0x2163348:     ff868593     addi a1, a3, -8
0x216334c:     00c72423     sw a2, 8(a4)
0x2163350:     00b72623     sw a1, 12(a4)
0x2163354:     00f82223     sw a5, 4(a6)
0x2163358:     00e6a023     sw a4, 0(a3)
0x216335c:     00e62623     sw a4, 12(a2)
0x2163360:     00812403     lw s0, 8(sp)
0x2163364:     00c12083     lw ra, 12(sp)
0x2163368:     00048513     addi a0, s1, 0
0x216336c:     00412483     lw s1, 4(sp)
0x2163370:     01010113     addi sp, sp, 16
0x2163374:     2190006f     jal zero, 2584
0x2163378:     02051e63     bne a0, zero, 60
0x216337c:     00d787b3     add a5, a5, a3
0x2163380:     00002897     auipc a7, 2
0x2163384:     2d488893     addi a7, a7, 724
0x2163388:     00862683     lw a3, 8(a2)
0x216338c:     0017e513     or a0, a5, 1
0x2163390:     00f705b3     add a1, a4, a5
0x2163394:     17168263     beq a3, a7, 356
0x2163398:     00c62603     lw a2, 12(a2)
0x216339c:     00c6a623     sw a2, 12(a3)
0x21633a0:     00d62423     sw a3, 8(a2)
0x21633a4:     00a72223     sw a0, 4(a4)
0x21633a8:     00f5a023     sw a5, 0(a1)
0x21633ac:     f71ff06f     jal zero, -144
0x21633b0:     00008067     jalr zero, 0(ra)
0x21633b4:     0015e593     or a1, a1, 1
0x21633b8:     feb42e23     sw a1, -4(s0)
0x21633bc:     00f62023     sw a5, 0(a2)
0x21633c0:     1ff00693     addi a3, zero, 511
0x21633c4:     f6f6f0e3     bgeu a3, a5, -160
0x21633c8:     0097d693     srli a3, a5, 9
0x21633cc:     00400613     addi a2, zero, 4
0x21633d0:     0ed66263     bltu a2, a3, 228
0x21633d4:     0067d693     srli a3, a5, 6
0x21633d8:     03968593     addi a1, a3, 57
0x21633dc:     00359593     slli a1, a1, 3
0x21633e0:     03868613     addi a2, a3, 56
0x21633e4:     00b805b3     add a1, a6, a1
0x21633e8:     0005a683     lw a3, 0(a1)
0x21633ec:     ff858593     addi a1, a1, -8
0x21633f0:     00d59863     bne a1, a3, 16
0x21633f4:     1200006f     jal zero, 288
0x21633f8:     0086a683     lw a3, 8(a3)
0x21633fc:     00d58863     beq a1, a3, 16
0x2163400:     0046a603     lw a2, 4(a3)
0x2163404:     ffc67613     andi a2, a2, -4
0x2163408:     fec7e8e3     bltu a5, a2, -16
0x216340c:     00c6a583     lw a1, 12(a3)
0x2163410:     00b72623     sw a1, 12(a4)
0x2163414:     00d72423     sw a3, 8(a4)
0x2163418:     00812403     lw s0, 8(sp)
0x216341c:     00c12083     lw ra, 12(sp)
0x2163420:     00e5a423     sw a4, 8(a1)
0x2163424:     00048513     addi a0, s1, 0
0x2163428:     00412483     lw s1, 4(sp)
0x216342c:     00e6a623     sw a4, 12(a3)
0x2163430:     01010113     addi sp, sp, 16
0x2163434:     1590006f     jal zero, 2392
0x2163438:     0a051063     bne a0, zero, 160
0x216343c:     00c62583     lw a1, 12(a2)
0x2163440:     00862603     lw a2, 8(a2)
0x2163444:     00f686b3     add a3, a3, a5
0x2163448:     0016e793     or a5, a3, 1
0x216344c:     00b62623     sw a1, 12(a2)
0x2163450:     00c5a423     sw a2, 8(a1)
0x2163454:     00f72223     sw a5, 4(a4)
0x2163458:     00d70733     add a4, a4, a3
0x216345c:     00d72023     sw a3, 0(a4)
0x2163460:     f01ff06f     jal zero, -256
0x2163464:     00d786b3     add a3, a5, a3
0x2163468:     02089063     bne a7, zero, 32
0x216346c:     ff842583     lw a1, -8(s0)
0x2163470:     40b70733     sub a4, a4, a1
0x2163474:     00c72783     lw a5, 12(a4)
0x2163478:     00872603     lw a2, 8(a4)
0x216347c:     00b686b3     add a3, a3, a1
0x2163480:     00f62623     sw a5, 12(a2)
0x2163484:     00c7a423     sw a2, 8(a5)
0x2163488:     0016e613     or a2, a3, 1
0x216348c:     d441a783     lw a5, -700(gp)
0x2163490:     00c72223     sw a2, 4(a4)
0x2163494:     00e82423     sw a4, 8(a6)
0x2163498:     ecf6e4e3     bltu a3, a5, -312
0x216349c:     d5c1a583     lw a1, -676(gp)
0x21634a0:     00048513     addi a0, s1, 0
0x21634a4:     ca9ff0ef     jal ra, -856
0x21634a8:     eb9ff06f     jal zero, -328
0x21634ac:     00d787b3     add a5, a5, a3
0x21634b0:     ed9ff06f     jal zero, -296
0x21634b4:     01400613     addi a2, zero, 20
0x21634b8:     02d67863     bgeu a2, a3, 48
0x21634bc:     05400613     addi a2, zero, 84
0x21634c0:     06d66863     bltu a2, a3, 112
0x21634c4:     00c7d693     srli a3, a5, 12
0x21634c8:     06f68593     addi a1, a3, 111
0x21634cc:     00359593     slli a1, a1, 3
0x21634d0:     06e68613     addi a2, a3, 110
0x21634d4:     f11ff06f     jal zero, -240
0x21634d8:     0017e693     or a3, a5, 1
0x21634dc:     00d72223     sw a3, 4(a4)
0x21634e0:     00f62023     sw a5, 0(a2)
0x21634e4:     e7dff06f     jal zero, -388
0x21634e8:     05c68593     addi a1, a3, 92
0x21634ec:     00359593     slli a1, a1, 3
0x21634f0:     05b68613     addi a2, a3, 91
0x21634f4:     ef1ff06f     jal zero, -272
0x21634f8:     00e82a23     sw a4, 20(a6)
0x21634fc:     00e82823     sw a4, 16(a6)
0x2163500:     01172623     sw a7, 12(a4)
0x2163504:     01172423     sw a7, 8(a4)
0x2163508:     00a72223     sw a0, 4(a4)
0x216350c:     00f5a023     sw a5, 0(a1)
0x2163510:     e51ff06f     jal zero, -432
0x2163514:     00482503     lw a0, 4(a6)
0x2163518:     40265613     srli a2, a2, 1026
0x216351c:     00100793     addi a5, zero, 1
0x2163520:     00c797b3     sll a5, a5, a2
0x2163524:     00a7e7b3     or a5, a5, a0
0x2163528:     00f82223     sw a5, 4(a6)
0x216352c:     ee5ff06f     jal zero, -284
0x2163530:     15400613     addi a2, zero, 340
0x2163534:     00d66c63     bltu a2, a3, 24
0x2163538:     00f7d693     srli a3, a5, 15
0x216353c:     07868593     addi a1, a3, 120
0x2163540:     00359593     slli a1, a1, 3
0x2163544:     07768613     addi a2, a3, 119
0x2163548:     e9dff06f     jal zero, -356
0x216354c:     55400613     addi a2, zero, 1364
0x2163550:     00d66c63     bltu a2, a3, 24
0x2163554:     0127d693     srli a3, a5, 18
0x2163558:     07d68593     addi a1, a3, 125
0x216355c:     00359593     slli a1, a1, 3
0x2163560:     07c68613     addi a2, a3, 124
0x2163564:     e81ff06f     jal zero, -384
0x2163568:     3f800593     addi a1, zero, 1016
0x216356c:     07e00613     addi a2, zero, 126
0x2163570:     e75ff06f     jal zero, -396
0x2163574:     fd010113     addi sp, sp, -48
0x2163578:     03212023     sw s2, 32(sp)
0x216357c:     02112623     sw ra, 44(sp)
0x2163580:     02812423     sw s0, 40(sp)
0x2163584:     02912223     sw s1, 36(sp)
0x2163588:     01312e23     sw s3, 28(sp)
0x216358c:     00b58793     addi a5, a1, 11
0x2163590:     01600713     addi a4, zero, 22
0x2163594:     00050913     addi s2, a0, 0
0x2163598:     08f76063     bltu a4, a5, 128
0x216359c:     01000493     addi s1, zero, 16
0x21635a0:     20b4e463     bltu s1, a1, 520
0x21635a4:     7e4000ef     jal ra, 2020
0x21635a8:     01800793     addi a5, zero, 24
0x21635ac:     00200593     addi a1, zero, 2
0x21635b0:     00002997     auipc s3, 2
0x21635b4:     09c98993     addi s3, s3, 156
0x21635b8:     00f987b3     add a5, s3, a5
0x21635bc:     0047a403     lw s0, 4(a5)
0x21635c0:     ff878713     addi a4, a5, -8
0x21635c4:     44e40c63     beq s0, a4, 1112
0x21635c8:     00442783     lw a5, 4(s0)
0x21635cc:     00c42683     lw a3, 12(s0)
0x21635d0:     00842603     lw a2, 8(s0)
0x21635d4:     ffc7f793     andi a5, a5, -4
0x21635d8:     00f407b3     add a5, s0, a5
0x21635dc:     0047a703     lw a4, 4(a5)
0x21635e0:     00d62623     sw a3, 12(a2)
0x21635e4:     00c6a423     sw a2, 8(a3)
0x21635e8:     00176713     or a4, a4, 1
0x21635ec:     00090513     addi a0, s2, 0
0x21635f0:     00e7a223     sw a4, 4(a5)
0x21635f4:     798000ef     jal ra, 1944
0x21635f8:     02c12083     lw ra, 44(sp)
0x21635fc:     00840513     addi a0, s0, 8
0x2163600:     02812403     lw s0, 40(sp)
0x2163604:     02412483     lw s1, 36(sp)
0x2163608:     02012903     lw s2, 32(sp)
0x216360c:     01c12983     lw s3, 28(sp)
0x2163610:     03010113     addi sp, sp, 48
0x2163614:     00008067     jalr zero, 0(ra)
0x2163618:     ff87f493     andi s1, a5, -8
0x216361c:     1807c663     blt a5, zero, 396
0x2163620:     18b4e463     bltu s1, a1, 392
0x2163624:     764000ef     jal ra, 1892
0x2163628:     1f700793     addi a5, zero, 503
0x216362c:     5097f263     bgeu a5, s1, 1284
0x2163630:     0094d793     srli a5, s1, 9
0x2163634:     18078e63     beq a5, zero, 412
0x2163638:     00400713     addi a4, zero, 4
0x216363c:     44f76863     bltu a4, a5, 1104
0x2163640:     0064d793     srli a5, s1, 6
0x2163644:     03978593     addi a1, a5, 57
0x2163648:     03878813     addi a6, a5, 56
0x216364c:     00359613     slli a2, a1, 3
0x2163650:     00002997     auipc s3, 2
0x2163654:     ffc98993     addi s3, s3, -4
0x2163658:     00c98633     add a2, s3, a2
0x216365c:     00462403     lw s0, 4(a2)
0x2163660:     ff860613     addi a2, a2, -8
0x2163664:     02860863     beq a2, s0, 48
0x2163668:     00f00513     addi a0, zero, 15
0x216366c:     0140006f     jal zero, 20
0x2163670:     00c42683     lw a3, 12(s0)
0x2163674:     36075263     bge a4, zero, 868
0x2163678:     00d60e63     beq a2, a3, 28
0x216367c:     00068413     addi s0, a3, 0
0x2163680:     00442783     lw a5, 4(s0)
0x2163684:     ffc7f793     andi a5, a5, -4
0x2163688:     40978733     sub a4, a5, s1
0x216368c:     fee552e3     bge a0, a4, -28
0x2163690:     00080593     addi a1, a6, 0
0x2163694:     0109a403     lw s0, 16(s3)
0x2163698:     00002897     auipc a7, 2
0x216369c:     fbc88893     addi a7, a7, -68
0x21636a0:     2b140c63     beq s0, a7, 696
0x21636a4:     00442783     lw a5, 4(s0)
0x21636a8:     00f00693     addi a3, zero, 15
0x21636ac:     ffc7f793     andi a5, a5, -4
0x21636b0:     40978733     sub a4, a5, s1
0x21636b4:     48e6c463     blt a3, a4, 1160
0x21636b8:     0119aa23     sw a7, 20(s3)
0x21636bc:     0119a823     sw a7, 16(s3)
0x21636c0:     44075863     bge a4, zero, 1104
0x21636c4:     1ff00713     addi a4, zero, 511
0x21636c8:     0049a503     lw a0, 4(s3)
0x21636cc:     36f76063     bltu a4, a5, 864
0x21636d0:     ff87f713     andi a4, a5, -8
0x21636d4:     00870713     addi a4, a4, 8
0x21636d8:     00e98733     add a4, s3, a4
0x21636dc:     00072683     lw a3, 0(a4)
0x21636e0:     0057d613     srli a2, a5, 5
0x21636e4:     00100793     addi a5, zero, 1
0x21636e8:     00c797b3     sll a5, a5, a2
0x21636ec:     00f56533     or a0, a0, a5
0x21636f0:     ff870793     addi a5, a4, -8
0x21636f4:     00d42423     sw a3, 8(s0)
0x21636f8:     00f42623     sw a5, 12(s0)
0x21636fc:     00a9a223     sw a0, 4(s3)
0x2163700:     00872023     sw s0, 0(a4)
0x2163704:     0086a623     sw s0, 12(a3)
0x2163708:     4025d793     srli a5, a1, 1026
0x216370c:     00100613     addi a2, zero, 1
0x2163710:     00f61633     sll a2, a2, a5
0x2163714:     0cc56663     bltu a0, a2, 204
0x2163718:     00a677b3     and a5, a2, a0
0x216371c:     02079463     bne a5, zero, 40
0x2163720:     00161613     slli a2, a2, 1
0x2163724:     ffc5f593     andi a1, a1, -4
0x2163728:     00a677b3     and a5, a2, a0
0x216372c:     00458593     addi a1, a1, 4
0x2163730:     00079a63     bne a5, zero, 20
0x2163734:     00161613     slli a2, a2, 1
0x2163738:     00a677b3     and a5, a2, a0
0x216373c:     00458593     addi a1, a1, 4
0x2163740:     fe078ae3     beq a5, zero, -12
0x2163744:     00f00813     addi a6, zero, 15
0x2163748:     00359313     slli t1, a1, 3
0x216374c:     00698333     add t1, s3, t1
0x2163750:     00030513     addi a0, t1, 0
0x2163754:     00c52783     lw a5, 12(a0)
0x2163758:     00058e13     addi t3, a1, 0
0x216375c:     34f50a63     beq a0, a5, 852
0x2163760:     0047a703     lw a4, 4(a5)
0x2163764:     00078413     addi s0, a5, 0
0x2163768:     00c7a783     lw a5, 12(a5)
0x216376c:     ffc77713     andi a4, a4, -4
0x2163770:     409706b3     sub a3, a4, s1
0x2163774:     34d84a63     blt a6, a3, 852
0x2163778:     fe06c2e3     blt a3, zero, -28
0x216377c:     00e40733     add a4, s0, a4
0x2163780:     00472683     lw a3, 4(a4)
0x2163784:     00842603     lw a2, 8(s0)
0x2163788:     00090513     addi a0, s2, 0
0x216378c:     0016e693     or a3, a3, 1
0x2163790:     00d72223     sw a3, 4(a4)
0x2163794:     00f62623     sw a5, 12(a2)
0x2163798:     00c7a423     sw a2, 8(a5)
0x216379c:     5f0000ef     jal ra, 1520
0x21637a0:     00840513     addi a0, s0, 8
0x21637a4:     0100006f     jal zero, 16
0x21637a8:     00c00793     addi a5, zero, 12
0x21637ac:     00f92023     sw a5, 0(s2)
0x21637b0:     00000513     addi a0, zero, 0
0x21637b4:     02c12083     lw ra, 44(sp)
0x21637b8:     02812403     lw s0, 40(sp)
0x21637bc:     02412483     lw s1, 36(sp)
0x21637c0:     02012903     lw s2, 32(sp)
0x21637c4:     01c12983     lw s3, 28(sp)
0x21637c8:     03010113     addi sp, sp, 48
0x21637cc:     00008067     jalr zero, 0(ra)
0x21637d0:     20000613     addi a2, zero, 512
0x21637d4:     04000593     addi a1, zero, 64
0x21637d8:     03f00813     addi a6, zero, 63
0x21637dc:     e75ff06f     jal zero, -396
0x21637e0:     0089a403     lw s0, 8(s3)
0x21637e4:     01612823     sw s6, 16(sp)
0x21637e8:     00442783     lw a5, 4(s0)
0x21637ec:     ffc7fb13     andi s6, a5, -4
0x21637f0:     009b6863     bltu s6, s1, 16
0x21637f4:     409b0733     sub a4, s6, s1
0x21637f8:     00f00793     addi a5, zero, 15
0x21637fc:     18e7cc63     blt a5, a4, 408
0x2163800:     01912223     sw s9, 4(sp)
0x2163804:     d4018c93     addi s9, gp, -704
0x2163808:     01512a23     sw s5, 20(sp)
0x216380c:     000ca703     lw a4, 0(s9)
0x2163810:     d5c1aa83     lw s5, -676(gp)
0x2163814:     01412c23     sw s4, 24(sp)
0x2163818:     01712623     sw s7, 12(sp)
0x216381c:     fff00793     addi a5, zero, -1
0x2163820:     01640a33     add s4, s0, s6
0x2163824:     01548ab3     add s5, s1, s5
0x2163828:     3ef70063     beq a4, a5, 992
0x216382c:     000017b7     lui a5, 1
0x2163830:     00f78793     addi a5, a5, 15
0x2163834:     00fa8ab3     add s5, s5, a5
0x2163838:     fffff7b7     lui a5, -1
0x216383c:     00fafab3     and s5, s5, a5
0x2163840:     000a8593     addi a1, s5, 0
0x2163844:     00090513     addi a0, s2, 0
0x2163848:     199000ef     jal ra, 2456
0x216384c:     fff00793     addi a5, zero, -1
0x2163850:     00050b93     addi s7, a0, 0
0x2163854:     46f50c63     beq a0, a5, 1144
0x2163858:     01812423     sw s8, 8(sp)
0x216385c:     11456263     bltu a0, s4, 260
0x2163860:     eb818c13     addi s8, gp, -328
0x2163864:     000c2583     lw a1, 0(s8)
0x2163868:     00ba85b3     add a1, s5, a1
0x216386c:     00bc2023     sw a1, 0(s8)
0x2163870:     00058713     addi a4, a1, 0
0x2163874:     46aa0263     beq s4, a0, 1124
0x2163878:     000ca683     lw a3, 0(s9)
0x216387c:     fff00793     addi a5, zero, -1
0x2163880:     46f68a63     beq a3, a5, 1140
0x2163884:     414b87b3     sub a5, s7, s4
0x2163888:     00e787b3     add a5, a5, a4
0x216388c:     00fc2023     sw a5, 0(s8)
0x2163890:     007bfc93     andi s9, s7, 7
0x2163894:     380c8a63     beq s9, zero, 916
0x2163898:     419b8bb3     sub s7, s7, s9
0x216389c:     000015b7     lui a1, 1
0x21638a0:     008b8b93     addi s7, s7, 8
0x21638a4:     00858593     addi a1, a1, 8
0x21638a8:     015b8ab3     add s5, s7, s5
0x21638ac:     419585b3     sub a1, a1, s9
0x21638b0:     415585b3     sub a1, a1, s5
0x21638b4:     01459593     slli a1, a1, 20
0x21638b8:     0145da13     srli s4, a1, 20
0x21638bc:     000a0593     addi a1, s4, 0
0x21638c0:     00090513     addi a0, s2, 0
0x21638c4:     11d000ef     jal ra, 2332
0x21638c8:     fff00793     addi a5, zero, -1
0x21638cc:     46f50463     beq a0, a5, 1128
0x21638d0:     41750533     sub a0, a0, s7
0x21638d4:     01450ab3     add s5, a0, s4
0x21638d8:     000c2703     lw a4, 0(s8)
0x21638dc:     0179a423     sw s7, 8(s3)
0x21638e0:     001ae793     or a5, s5, 1
0x21638e4:     00ea05b3     add a1, s4, a4
0x21638e8:     00fba223     sw a5, 4(s7)
0x21638ec:     00bc2023     sw a1, 0(s8)
0x21638f0:     03340e63     beq s0, s3, 60
0x21638f4:     00f00693     addi a3, zero, 15
0x21638f8:     3566fe63     bgeu a3, s6, 860
0x21638fc:     00442703     lw a4, 4(s0)
0x2163900:     ff4b0793     addi a5, s6, -12
0x2163904:     ff87f793     andi a5, a5, -8
0x2163908:     00177713     andi a4, a4, 1
0x216390c:     00f76733     or a4, a4, a5
0x2163910:     00e42223     sw a4, 4(s0)
0x2163914:     00500613     addi a2, zero, 5
0x2163918:     00f40733     add a4, s0, a5
0x216391c:     00c72223     sw a2, 4(a4)
0x2163920:     00c72423     sw a2, 8(a4)
0x2163924:     2cf6e663     bltu a3, a5, 716
0x2163928:     004ba783     lw a5, 4(s7)
0x216392c:     d5818713     addi a4, gp, -680
0x2163930:     00072683     lw a3, 0(a4)
0x2163934:     00b6f463     bgeu a3, a1, 8
0x2163938:     00b72023     sw a1, 0(a4)
0x216393c:     d5418713     addi a4, gp, -684
0x2163940:     00072683     lw a3, 0(a4)
0x2163944:     00b6f463     bgeu a3, a1, 8
0x2163948:     00b72023     sw a1, 0(a4)
0x216394c:     00812c03     lw s8, 8(sp)
0x2163950:     000b8413     addi s0, s7, 0
0x2163954:     01c0006f     jal zero, 28
0x2163958:     0049a503     lw a0, 4(s3)
0x216395c:     dadff06f     jal zero, -596
0x2163960:     35340c63     beq s0, s3, 856
0x2163964:     0089a403     lw s0, 8(s3)
0x2163968:     00812c03     lw s8, 8(sp)
0x216396c:     00442783     lw a5, 4(s0)
0x2163970:     ffc7f793     andi a5, a5, -4
0x2163974:     40978733     sub a4, a5, s1
0x2163978:     2e97e463     bltu a5, s1, 744
0x216397c:     00f00793     addi a5, zero, 15
0x2163980:     2ee7d063     bge a5, a4, 736
0x2163984:     01812a03     lw s4, 24(sp)
0x2163988:     01412a83     lw s5, 20(sp)
0x216398c:     00c12b83     lw s7, 12(sp)
0x2163990:     00412c83     lw s9, 4(sp)
0x2163994:     0014e793     or a5, s1, 1
0x2163998:     00f42223     sw a5, 4(s0)
0x216399c:     009404b3     add s1, s0, s1
0x21639a0:     0099a423     sw s1, 8(s3)
0x21639a4:     00176713     or a4, a4, 1
0x21639a8:     00090513     addi a0, s2, 0
0x21639ac:     00e4a223     sw a4, 4(s1)
0x21639b0:     3dc000ef     jal ra, 988
0x21639b4:     02c12083     lw ra, 44(sp)
0x21639b8:     00840513     addi a0, s0, 8
0x21639bc:     02812403     lw s0, 40(sp)
0x21639c0:     01012b03     lw s6, 16(sp)
0x21639c4:     02412483     lw s1, 36(sp)
0x21639c8:     02012903     lw s2, 32(sp)
0x21639cc:     01c12983     lw s3, 28(sp)
0x21639d0:     03010113     addi sp, sp, 48
0x21639d4:     00008067     jalr zero, 0(ra)
0x21639d8:     00842603     lw a2, 8(s0)
0x21639dc:     00f407b3     add a5, s0, a5
0x21639e0:     0047a703     lw a4, 4(a5)
0x21639e4:     00d62623     sw a3, 12(a2)
0x21639e8:     00c6a423     sw a2, 8(a3)
0x21639ec:     00176713     or a4, a4, 1
0x21639f0:     00090513     addi a0, s2, 0
0x21639f4:     00e7a223     sw a4, 4(a5)
0x21639f8:     394000ef     jal ra, 916
0x21639fc:     02c12083     lw ra, 44(sp)
0x2163a00:     00840513     addi a0, s0, 8
0x2163a04:     02812403     lw s0, 40(sp)
0x2163a08:     02412483     lw s1, 36(sp)
0x2163a0c:     02012903     lw s2, 32(sp)
0x2163a10:     01c12983     lw s3, 28(sp)
0x2163a14:     03010113     addi sp, sp, 48
0x2163a18:     00008067     jalr zero, 0(ra)
0x2163a1c:     00c7a403     lw s0, 12(a5)
0x2163a20:     00258593     addi a1, a1, 2
0x2163a24:     c68788e3     beq a5, s0, -912
0x2163a28:     ba1ff06f     jal zero, -1120
0x2163a2c:     0097d713     srli a4, a5, 9
0x2163a30:     00400693     addi a3, zero, 4
0x2163a34:     14e6f263     bgeu a3, a4, 324
0x2163a38:     01400693     addi a3, zero, 20
0x2163a3c:     24e6e263     bltu a3, a4, 580
0x2163a40:     05c70613     addi a2, a4, 92
0x2163a44:     00361613     slli a2, a2, 3
0x2163a48:     05b70693     addi a3, a4, 91
0x2163a4c:     00c98633     add a2, s3, a2
0x2163a50:     00062703     lw a4, 0(a2)
0x2163a54:     ff860613     addi a2, a2, -8
0x2163a58:     00e61863     bne a2, a4, 16
0x2163a5c:     1b40006f     jal zero, 436
0x2163a60:     00872703     lw a4, 8(a4)
0x2163a64:     00e60863     beq a2, a4, 16
0x2163a68:     00472683     lw a3, 4(a4)
0x2163a6c:     ffc6f693     andi a3, a3, -4
0x2163a70:     fed7e8e3     bltu a5, a3, -16
0x2163a74:     00c72603     lw a2, 12(a4)
0x2163a78:     00c42623     sw a2, 12(s0)
0x2163a7c:     00e42423     sw a4, 8(s0)
0x2163a80:     00862423     sw s0, 8(a2)
0x2163a84:     00872623     sw s0, 12(a4)
0x2163a88:     c81ff06f     jal zero, -896
0x2163a8c:     01400713     addi a4, zero, 20
0x2163a90:     0ef77e63     bgeu a4, a5, 252
0x2163a94:     05400713     addi a4, zero, 84
0x2163a98:     20f76263     bltu a4, a5, 516
0x2163a9c:     00c4d793     srli a5, s1, 12
0x2163aa0:     06f78593     addi a1, a5, 111
0x2163aa4:     06e78813     addi a6, a5, 110
0x2163aa8:     00359613     slli a2, a1, 3
0x2163aac:     ba5ff06f     jal zero, -1116
0x2163ab0:     001e0e13     addi t3, t3, 1
0x2163ab4:     003e7793     andi a5, t3, 3
0x2163ab8:     00850513     addi a0, a0, 8
0x2163abc:     0e078663     beq a5, zero, 236
0x2163ac0:     00c52783     lw a5, 12(a0)
0x2163ac4:     c99ff06f     jal zero, -872
0x2163ac8:     00842603     lw a2, 8(s0)
0x2163acc:     0014e593     or a1, s1, 1
0x2163ad0:     00b42223     sw a1, 4(s0)
0x2163ad4:     00f62623     sw a5, 12(a2)
0x2163ad8:     00c7a423     sw a2, 8(a5)
0x2163adc:     009404b3     add s1, s0, s1
0x2163ae0:     0099aa23     sw s1, 20(s3)
0x2163ae4:     0099a823     sw s1, 16(s3)
0x2163ae8:     0016e793     or a5, a3, 1
0x2163aec:     00e40733     add a4, s0, a4
0x2163af0:     0114a623     sw a7, 12(s1)
0x2163af4:     0114a423     sw a7, 8(s1)
0x2163af8:     00f4a223     sw a5, 4(s1)
0x2163afc:     00090513     addi a0, s2, 0
0x2163b00:     00d72023     sw a3, 0(a4)
0x2163b04:     288000ef     jal ra, 648
0x2163b08:     00840513     addi a0, s0, 8
0x2163b0c:     ca9ff06f     jal zero, -856
0x2163b10:     00f407b3     add a5, s0, a5
0x2163b14:     0047a703     lw a4, 4(a5)
0x2163b18:     00090513     addi a0, s2, 0
0x2163b1c:     00176713     or a4, a4, 1
0x2163b20:     00e7a223     sw a4, 4(a5)
0x2163b24:     268000ef     jal ra, 616
0x2163b28:     00840513     addi a0, s0, 8
0x2163b2c:     c89ff06f     jal zero, -888
0x2163b30:     0034d593     srli a1, s1, 3
0x2163b34:     00848793     addi a5, s1, 8
0x2163b38:     a79ff06f     jal zero, -1416
0x2163b3c:     0014e693     or a3, s1, 1
0x2163b40:     00d42223     sw a3, 4(s0)
0x2163b44:     009404b3     add s1, s0, s1
0x2163b48:     0099aa23     sw s1, 20(s3)
0x2163b4c:     0099a823     sw s1, 16(s3)
0x2163b50:     00176693     or a3, a4, 1
0x2163b54:     00f407b3     add a5, s0, a5
0x2163b58:     0114a623     sw a7, 12(s1)
0x2163b5c:     0114a423     sw a7, 8(s1)
0x2163b60:     00d4a223     sw a3, 4(s1)
0x2163b64:     00090513     addi a0, s2, 0
0x2163b68:     00e7a023     sw a4, 0(a5)
0x2163b6c:     220000ef     jal ra, 544
0x2163b70:     00840513     addi a0, s0, 8
0x2163b74:     c41ff06f     jal zero, -960
0x2163b78:     0067d713     srli a4, a5, 6
0x2163b7c:     03970613     addi a2, a4, 57
0x2163b80:     00361613     slli a2, a2, 3
0x2163b84:     03870693     addi a3, a4, 56
0x2163b88:     ec5ff06f     jal zero, -316
0x2163b8c:     05c78593     addi a1, a5, 92
0x2163b90:     05b78813     addi a6, a5, 91
0x2163b94:     00359613     slli a2, a1, 3
0x2163b98:     ab9ff06f     jal zero, -1352
0x2163b9c:     00832783     lw a5, 8(t1)
0x2163ba0:     fff58593     addi a1, a1, -1
0x2163ba4:     1c679e63     bne a5, t1, 476
0x2163ba8:     0035f793     andi a5, a1, 3
0x2163bac:     ff830313     addi t1, t1, -8
0x2163bb0:     fe0796e3     bne a5, zero, -20
0x2163bb4:     0049a703     lw a4, 4(s3)
0x2163bb8:     fff64793     xori a5, a2, -1
0x2163bbc:     00e7f7b3     and a5, a5, a4
0x2163bc0:     00f9a223     sw a5, 4(s3)
0x2163bc4:     00161613     slli a2, a2, 1
0x2163bc8:     c0c7ece3     bltu a5, a2, -1000
0x2163bcc:     c0060ae3     beq a2, zero, -1004
0x2163bd0:     00f67733     and a4, a2, a5
0x2163bd4:     00071a63     bne a4, zero, 20
0x2163bd8:     00161613     slli a2, a2, 1
0x2163bdc:     00f67733     and a4, a2, a5
0x2163be0:     004e0e13     addi t3, t3, 4
0x2163be4:     fe070ae3     beq a4, zero, -12
0x2163be8:     000e0593     addi a1, t3, 0
0x2163bec:     b5dff06f     jal zero, -1188
0x2163bf0:     00840593     addi a1, s0, 8
0x2163bf4:     00090513     addi a0, s2, 0
0x2163bf8:     e8cff0ef     jal ra, -2420
0x2163bfc:     000c2583     lw a1, 0(s8)
0x2163c00:     0089ab83     lw s7, 8(s3)
0x2163c04:     d25ff06f     jal zero, -732
0x2163c08:     010a8a93     addi s5, s5, 16
0x2163c0c:     c35ff06f     jal zero, -972
0x2163c10:     4026d693     srli a3, a3, 1026
0x2163c14:     00100793     addi a5, zero, 1
0x2163c18:     00d797b3     sll a5, a5, a3
0x2163c1c:     00f56533     or a0, a0, a5
0x2163c20:     00a9a223     sw a0, 4(s3)
0x2163c24:     e55ff06f     jal zero, -428
0x2163c28:     015b85b3     add a1, s7, s5
0x2163c2c:     40b005b3     sub a1, zero, a1
0x2163c30:     01459593     slli a1, a1, 20
0x2163c34:     0145da13     srli s4, a1, 20
0x2163c38:     000a0593     addi a1, s4, 0
0x2163c3c:     00090513     addi a0, s2, 0
0x2163c40:     5a0000ef     jal ra, 1440
0x2163c44:     fff00793     addi a5, zero, -1
0x2163c48:     c8f514e3     bne a0, a5, -888
0x2163c4c:     00000a13     addi s4, zero, 0
0x2163c50:     c89ff06f     jal zero, -888
0x2163c54:     00812c03     lw s8, 8(sp)
0x2163c58:     00100793     addi a5, zero, 1
0x2163c5c:     00fba223     sw a5, 4(s7)
0x2163c60:     00090513     addi a0, s2, 0
0x2163c64:     128000ef     jal ra, 296
0x2163c68:     01812a03     lw s4, 24(sp)
0x2163c6c:     01412a83     lw s5, 20(sp)
0x2163c70:     01012b03     lw s6, 16(sp)
0x2163c74:     00c12b83     lw s7, 12(sp)
0x2163c78:     00412c83     lw s9, 4(sp)
0x2163c7c:     b35ff06f     jal zero, -1228
0x2163c80:     05400693     addi a3, zero, 84
0x2163c84:     06e6ec63     bltu a3, a4, 120
0x2163c88:     00c7d713     srli a4, a5, 12
0x2163c8c:     06f70613     addi a2, a4, 111
0x2163c90:     00361613     slli a2, a2, 3
0x2163c94:     06e70693     addi a3, a4, 110
0x2163c98:     db5ff06f     jal zero, -588
0x2163c9c:     15400713     addi a4, zero, 340
0x2163ca0:     06f76c63     bltu a4, a5, 120
0x2163ca4:     00f4d793     srli a5, s1, 15
0x2163ca8:     07878593     addi a1, a5, 120
0x2163cac:     07778813     addi a6, a5, 119
0x2163cb0:     00359613     slli a2, a1, 3
0x2163cb4:     99dff06f     jal zero, -1636
0x2163cb8:     eb818c13     addi s8, gp, -328
0x2163cbc:     000c2703     lw a4, 0(s8)
0x2163cc0:     00ea8733     add a4, s5, a4
0x2163cc4:     00ec2023     sw a4, 0(s8)
0x2163cc8:     bb1ff06f     jal zero, -1104
0x2163ccc:     0089a403     lw s0, 8(s3)
0x2163cd0:     00442783     lw a5, 4(s0)
0x2163cd4:     c9dff06f     jal zero, -868
0x2163cd8:     01451793     slli a5, a0, 20
0x2163cdc:     b8079ee3     bne a5, zero, -1124
0x2163ce0:     0089ab83     lw s7, 8(s3)
0x2163ce4:     015b07b3     add a5, s6, s5
0x2163ce8:     0017e793     or a5, a5, 1
0x2163cec:     00fba223     sw a5, 4(s7)
0x2163cf0:     c3dff06f     jal zero, -964
0x2163cf4:     017ca023     sw s7, 0(s9)
0x2163cf8:     b99ff06f     jal zero, -1128
0x2163cfc:     15400693     addi a3, zero, 340
0x2163d00:     04e6e463     bltu a3, a4, 72
0x2163d04:     00f7d713     srli a4, a5, 15
0x2163d08:     07870613     addi a2, a4, 120
0x2163d0c:     00361613     slli a2, a2, 3
0x2163d10:     07770693     addi a3, a4, 119
0x2163d14:     d39ff06f     jal zero, -712
0x2163d18:     55400713     addi a4, zero, 1364
0x2163d1c:     04f76463     bltu a4, a5, 72
0x2163d20:     0124d793     srli a5, s1, 18
0x2163d24:     07d78593     addi a1, a5, 125
0x2163d28:     07c78813     addi a6, a5, 124
0x2163d2c:     00359613     slli a2, a1, 3
0x2163d30:     921ff06f     jal zero, -1760
0x2163d34:     ff8c8c93     addi s9, s9, -8
0x2163d38:     019a8ab3     add s5, s5, s9
0x2163d3c:     417a8ab3     sub s5, s5, s7
0x2163d40:     00000a13     addi s4, zero, 0
0x2163d44:     b95ff06f     jal zero, -1132
0x2163d48:     55400693     addi a3, zero, 1364
0x2163d4c:     02e6e463     bltu a3, a4, 40
0x2163d50:     0127d713     srli a4, a5, 18
0x2163d54:     07d70613     addi a2, a4, 125
0x2163d58:     00361613     slli a2, a2, 3
0x2163d5c:     07c70693     addi a3, a4, 124
0x2163d60:     cedff06f     jal zero, -788
0x2163d64:     3f800613     addi a2, zero, 1016
0x2163d68:     07f00593     addi a1, zero, 127
0x2163d6c:     07e00813     addi a6, zero, 126
0x2163d70:     8e1ff06f     jal zero, -1824
0x2163d74:     3f800613     addi a2, zero, 1016
0x2163d78:     07e00693     addi a3, zero, 126
0x2163d7c:     cd1ff06f     jal zero, -816
0x2163d80:     0049a783     lw a5, 4(s3)
0x2163d84:     e41ff06f     jal zero, -448
0x2163d88:     00008067     jalr zero, 0(ra)
0x2163d8c:     00008067     jalr zero, 0(ra)
0x2163d90:     ff010113     addi sp, sp, -16
0x2163d94:     00112623     sw ra, 12(sp)
0x2163d98:     01212023     sw s2, 0(sp)
0x2163d9c:     02058863     beq a1, zero, 48
0x2163da0:     00812423     sw s0, 8(sp)
0x2163da4:     00912223     sw s1, 4(sp)
0x2163da8:     00058413     addi s0, a1, 0
0x2163dac:     00050493     addi s1, a0, 0
0x2163db0:     00050663     beq a0, zero, 12
0x2163db4:     03452783     lw a5, 52(a0)
0x2163db8:     0c078c63     beq a5, zero, 216
0x2163dbc:     00c41783     lh a5, 12(s0)
0x2163dc0:     02079263     bne a5, zero, 36
0x2163dc4:     00812403     lw s0, 8(sp)
0x2163dc8:     00412483     lw s1, 4(sp)
0x2163dcc:     00c12083     lw ra, 12(sp)
0x2163dd0:     00000913     addi s2, zero, 0
0x2163dd4:     00090513     addi a0, s2, 0
0x2163dd8:     00012903     lw s2, 0(sp)
0x2163ddc:     01010113     addi sp, sp, 16
0x2163de0:     00008067     jalr zero, 0(ra)
0x2163de4:     00040593     addi a1, s0, 0
0x2163de8:     00048513     addi a0, s1, 0
0x2163dec:     0b8000ef     jal ra, 184
0x2163df0:     02c42783     lw a5, 44(s0)
0x2163df4:     00050913     addi s2, a0, 0
0x2163df8:     00078a63     beq a5, zero, 20
0x2163dfc:     01c42583     lw a1, 28(s0)
0x2163e00:     00048513     addi a0, s1, 0
0x2163e04:     000780e7     jalr ra, 0(a5)
0x2163e08:     06054463     blt a0, zero, 104
0x2163e0c:     00c45783     lhu a5, 12(s0)
0x2163e10:     0807f793     andi a5, a5, 128
0x2163e14:     06079663     bne a5, zero, 108
0x2163e18:     03042583     lw a1, 48(s0)
0x2163e1c:     00058c63     beq a1, zero, 24
0x2163e20:     04040793     addi a5, s0, 64
0x2163e24:     00f58663     beq a1, a5, 12
0x2163e28:     00048513     addi a0, s1, 0
0x2163e2c:     c58ff0ef     jal ra, -2984
0x2163e30:     02042823     sw zero, 48(s0)
0x2163e34:     04442583     lw a1, 68(s0)
0x2163e38:     00058863     beq a1, zero, 16
0x2163e3c:     00048513     addi a0, s1, 0
0x2163e40:     c44ff0ef     jal ra, -3004
0x2163e44:     04042223     sw zero, 68(s0)
0x2163e48:     b3dfe0ef     jal ra, -5316
0x2163e4c:     00041623     sh zero, 12(s0)
0x2163e50:     b39fe0ef     jal ra, -5320
0x2163e54:     00c12083     lw ra, 12(sp)
0x2163e58:     00812403     lw s0, 8(sp)
0x2163e5c:     00412483     lw s1, 4(sp)
0x2163e60:     00090513     addi a0, s2, 0
0x2163e64:     00012903     lw s2, 0(sp)
0x2163e68:     01010113     addi sp, sp, 16
0x2163e6c:     00008067     jalr zero, 0(ra)
0x2163e70:     00c45783     lhu a5, 12(s0)
0x2163e74:     fff00913     addi s2, zero, -1
0x2163e78:     0807f793     andi a5, a5, 128
0x2163e7c:     f8078ee3     beq a5, zero, -100
0x2163e80:     01042583     lw a1, 16(s0)
0x2163e84:     00048513     addi a0, s1, 0
0x2163e88:     bfcff0ef     jal ra, -3076
0x2163e8c:     f8dff06f     jal zero, -116
0x2163e90:     ad1fe0ef     jal ra, -5424
0x2163e94:     f29ff06f     jal zero, -216
0x2163e98:     00050593     addi a1, a0, 0
0x2163e9c:     d3c1a503     lw a0, -708(gp)
0x2163ea0:     ef1ff06f     jal zero, -272
0x2163ea4:     00c59703     lh a4, 12(a1)
0x2163ea8:     fe010113     addi sp, sp, -32
0x2163eac:     00812c23     sw s0, 24(sp)
0x2163eb0:     01312623     sw s3, 12(sp)
0x2163eb4:     00112e23     sw ra, 28(sp)
0x2163eb8:     00877793     andi a5, a4, 8
0x2163ebc:     00058413     addi s0, a1, 0
0x2163ec0:     00050993     addi s3, a0, 0
0x2163ec4:     12079063     bne a5, zero, 288
0x2163ec8:     000017b7     lui a5, 1
0x2163ecc:     80078793     addi a5, a5, -2048
0x2163ed0:     0045a683     lw a3, 4(a1)
0x2163ed4:     00f767b3     or a5, a4, a5
0x2163ed8:     00f59623     sh a5, 12(a1)
0x2163edc:     18d05a63     bge zero, a3, 404
0x2163ee0:     02842803     lw a6, 40(s0)
0x2163ee4:     0e080463     beq a6, zero, 232
0x2163ee8:     00912a23     sw s1, 20(sp)
0x2163eec:     01371693     slli a3, a4, 19
0x2163ef0:     0009a483     lw s1, 0(s3)
0x2163ef4:     0009a023     sw zero, 0(s3)
0x2163ef8:     1806c863     blt a3, zero, 400
0x2163efc:     01c42583     lw a1, 28(s0)
0x2163f00:     00000613     addi a2, zero, 0
0x2163f04:     00100693     addi a3, zero, 1
0x2163f08:     00098513     addi a0, s3, 0
0x2163f0c:     000800e7     jalr ra, 0(a6)
0x2163f10:     fff00793     addi a5, zero, -1
0x2163f14:     00050613     addi a2, a0, 0
0x2163f18:     1af50a63     beq a0, a5, 436
0x2163f1c:     00c41783     lh a5, 12(s0)
0x2163f20:     02842803     lw a6, 40(s0)
0x2163f24:     0047f793     andi a5, a5, 4
0x2163f28:     00078e63     beq a5, zero, 28
0x2163f2c:     00442703     lw a4, 4(s0)
0x2163f30:     03042783     lw a5, 48(s0)
0x2163f34:     40e60633     sub a2, a2, a4
0x2163f38:     00078663     beq a5, zero, 12
0x2163f3c:     03c42783     lw a5, 60(s0)
0x2163f40:     40f60633     sub a2, a2, a5
0x2163f44:     01c42583     lw a1, 28(s0)
0x2163f48:     00000693     addi a3, zero, 0
0x2163f4c:     00098513     addi a0, s3, 0
0x2163f50:     000800e7     jalr ra, 0(a6)
0x2163f54:     fff00713     addi a4, zero, -1
0x2163f58:     00c41783     lh a5, 12(s0)
0x2163f5c:     12e51a63     bne a0, a4, 308
0x2163f60:     0009a683     lw a3, 0(s3)
0x2163f64:     01d00713     addi a4, zero, 29
0x2163f68:     18d76063     bltu a4, a3, 384
0x2163f6c:     20400737     lui a4, 132096
0x2163f70:     00170713     addi a4, a4, 1
0x2163f74:     00d75733     srl a4, a4, a3
0x2163f78:     00177713     andi a4, a4, 1
0x2163f7c:     16070663     beq a4, zero, 364
0x2163f80:     01042603     lw a2, 16(s0)
0x2163f84:     fffff737     lui a4, -1
0x2163f88:     7ff70713     addi a4, a4, 2047
0x2163f8c:     00e7f733     and a4, a5, a4
0x2163f90:     00e41623     sh a4, 12(s0)
0x2163f94:     00042223     sw zero, 4(s0)
0x2163f98:     00c42023     sw a2, 0(s0)
0x2163f9c:     01379713     slli a4, a5, 19
0x2163fa0:     00075463     bge a4, zero, 8
0x2163fa4:     10068863     beq a3, zero, 272
0x2163fa8:     03042583     lw a1, 48(s0)
0x2163fac:     0099a023     sw s1, 0(s3)
0x2163fb0:     10058a63     beq a1, zero, 276
0x2163fb4:     04040793     addi a5, s0, 64
0x2163fb8:     00f58663     beq a1, a5, 12
0x2163fbc:     00098513     addi a0, s3, 0
0x2163fc0:     ac4ff0ef     jal ra, -3388
0x2163fc4:     01412483     lw s1, 20(sp)
0x2163fc8:     02042823     sw zero, 48(s0)
0x2163fcc:     01c12083     lw ra, 28(sp)
0x2163fd0:     01812403     lw s0, 24(sp)
0x2163fd4:     00c12983     lw s3, 12(sp)
0x2163fd8:     00000513     addi a0, zero, 0
0x2163fdc:     02010113     addi sp, sp, 32
0x2163fe0:     00008067     jalr zero, 0(ra)
0x2163fe4:     01212823     sw s2, 16(sp)
0x2163fe8:     0105a903     lw s2, 16(a1)
0x2163fec:     08090a63     beq s2, zero, 148
0x2163ff0:     00912a23     sw s1, 20(sp)
0x2163ff4:     0005a483     lw s1, 0(a1)
0x2163ff8:     00377713     andi a4, a4, 3
0x2163ffc:     0125a023     sw s2, 0(a1)
0x2164000:     412484b3     sub s1, s1, s2
0x2164004:     00000793     addi a5, zero, 0
0x2164008:     00071463     bne a4, zero, 8
0x216400c:     0145a783     lw a5, 20(a1)
0x2164010:     00f42423     sw a5, 8(s0)
0x2164014:     00904863     blt zero, s1, 16
0x2164018:     0640006f     jal zero, 100
0x216401c:     00a90933     add s2, s2, a0
0x2164020:     04905e63     bge zero, s1, 92
0x2164024:     02442783     lw a5, 36(s0)
0x2164028:     01c42583     lw a1, 28(s0)
0x216402c:     00048693     addi a3, s1, 0
0x2164030:     00090613     addi a2, s2, 0
0x2164034:     00098513     addi a0, s3, 0
0x2164038:     000780e7     jalr ra, 0(a5)
0x216403c:     40a484b3     sub s1, s1, a0
0x2164040:     fca04ee3     blt zero, a0, -36
0x2164044:     00c41783     lh a5, 12(s0)
0x2164048:     01012903     lw s2, 16(sp)
0x216404c:     0407e793     or a5, a5, 64
0x2164050:     01c12083     lw ra, 28(sp)
0x2164054:     00f41623     sh a5, 12(s0)
0x2164058:     01812403     lw s0, 24(sp)
0x216405c:     01412483     lw s1, 20(sp)
0x2164060:     00c12983     lw s3, 12(sp)
0x2164064:     fff00513     addi a0, zero, -1
0x2164068:     02010113     addi sp, sp, 32
0x216406c:     00008067     jalr zero, 0(ra)
0x2164070:     03c5a683     lw a3, 60(a1)
0x2164074:     e6d046e3     blt zero, a3, -404
0x2164078:     f55ff06f     jal zero, -172
0x216407c:     01412483     lw s1, 20(sp)
0x2164080:     01012903     lw s2, 16(sp)
0x2164084:     f49ff06f     jal zero, -184
0x2164088:     05042603     lw a2, 80(s0)
0x216408c:     e99ff06f     jal zero, -360
0x2164090:     01042683     lw a3, 16(s0)
0x2164094:     fffff737     lui a4, -1
0x2164098:     7ff70713     addi a4, a4, 2047
0x216409c:     00e7f733     and a4, a5, a4
0x21640a0:     00e41623     sh a4, 12(s0)
0x21640a4:     00042223     sw zero, 4(s0)
0x21640a8:     00d42023     sw a3, 0(s0)
0x21640ac:     01379713     slli a4, a5, 19
0x21640b0:     ee075ce3     bge a4, zero, -264
0x21640b4:     03042583     lw a1, 48(s0)
0x21640b8:     04a42823     sw a0, 80(s0)
0x21640bc:     0099a023     sw s1, 0(s3)
0x21640c0:     ee059ae3     bne a1, zero, -268
0x21640c4:     01412483     lw s1, 20(sp)
0x21640c8:     f05ff06f     jal zero, -252
0x21640cc:     0009a783     lw a5, 0(s3)
0x21640d0:     e40786e3     beq a5, zero, -436
0x21640d4:     01d00713     addi a4, zero, 29
0x21640d8:     00e78c63     beq a5, a4, 24
0x21640dc:     01600713     addi a4, zero, 22
0x21640e0:     00e78863     beq a5, a4, 16
0x21640e4:     00c41783     lh a5, 12(s0)
0x21640e8:     0407e793     or a5, a5, 64
0x21640ec:     f65ff06f     jal zero, -156
0x21640f0:     0099a023     sw s1, 0(s3)
0x21640f4:     01412483     lw s1, 20(sp)
0x21640f8:     ed5ff06f     jal zero, -300
0x21640fc:     fe010113     addi sp, sp, -32
0x2164100:     00812c23     sw s0, 24(sp)
0x2164104:     00112e23     sw ra, 28(sp)
0x2164108:     00050413     addi s0, a0, 0
0x216410c:     00050663     beq a0, zero, 12
0x2164110:     03452783     lw a5, 52(a0)
0x2164114:     02078a63     beq a5, zero, 52
0x2164118:     00c59783     lh a5, 12(a1)
0x216411c:     00079c63     bne a5, zero, 24
0x2164120:     01c12083     lw ra, 28(sp)
0x2164124:     01812403     lw s0, 24(sp)
0x2164128:     00000513     addi a0, zero, 0
0x216412c:     02010113     addi sp, sp, 32
0x2164130:     00008067     jalr zero, 0(ra)
0x2164134:     00040513     addi a0, s0, 0
0x2164138:     01812403     lw s0, 24(sp)
0x216413c:     01c12083     lw ra, 28(sp)
0x2164140:     02010113     addi sp, sp, 32
0x2164144:     d61ff06f     jal zero, -672
0x2164148:     00b12623     sw a1, 12(sp)
0x216414c:     815fe0ef     jal ra, -6124
0x2164150:     00c12583     lw a1, 12(sp)
0x2164154:     fc5ff06f     jal zero, -60
0x2164158:     06050063     beq a0, zero, 96
0x216415c:     00050593     addi a1, a0, 0
0x2164160:     d3c1a503     lw a0, -708(gp)
0x2164164:     00050663     beq a0, zero, 12
0x2164168:     03452783     lw a5, 52(a0)
0x216416c:     00078c63     beq a5, zero, 24
0x2164170:     00c59783     lh a5, 12(a1)
0x2164174:     00079663     bne a5, zero, 12
0x2164178:     00000513     addi a0, zero, 0
0x216417c:     00008067     jalr zero, 0(ra)
0x2164180:     d25ff06f     jal zero, -732
0x2164184:     fe010113     addi sp, sp, -32
0x2164188:     00b12623     sw a1, 12(sp)
0x216418c:     00a12423     sw a0, 8(sp)
0x2164190:     00112e23     sw ra, 28(sp)
0x2164194:     fccfe0ef     jal ra, -6196
0x2164198:     00c12583     lw a1, 12(sp)
0x216419c:     00812503     lw a0, 8(sp)
0x21641a0:     00c59783     lh a5, 12(a1)
0x21641a4:     02079863     bne a5, zero, 48
0x21641a8:     01c12083     lw ra, 28(sp)
0x21641ac:     00000513     addi a0, zero, 0
0x21641b0:     02010113     addi sp, sp, 32
0x21641b4:     00008067     jalr zero, 0(ra)
0x21641b8:     00001617     auipc a2, 1
0x21641bc:     36460613     addi a2, a2, 868
0x21641c0:     00000597     auipc a1, 0
0x21641c4:     f3c58593     addi a1, a1, -196
0x21641c8:     00001517     auipc a0, 1
0x21641cc:     36450513     addi a0, a0, 868
0x21641d0:     fecfe06f     jal zero, -6164
0x21641d4:     01c12083     lw ra, 28(sp)
0x21641d8:     02010113     addi sp, sp, 32
0x21641dc:     cc9ff06f     jal zero, -824
0x21641e0:     ff010113     addi sp, sp, -16
0x21641e4:     00812423     sw s0, 8(sp)
0x21641e8:     00050413     addi s0, a0, 0
0x21641ec:     00058513     addi a0, a1, 0
0x21641f0:     d401a623     sw zero, -692(gp)
0x21641f4:     00112623     sw ra, 12(sp)
0x21641f8:     248000ef     jal ra, 584
0x21641fc:     fff00793     addi a5, zero, -1
0x2164200:     00f50a63     beq a0, a5, 20
0x2164204:     00c12083     lw ra, 12(sp)
0x2164208:     00812403     lw s0, 8(sp)
0x216420c:     01010113     addi sp, sp, 16
0x2164210:     00008067     jalr zero, 0(ra)
0x2164214:     00912223     sw s1, 4(sp)
0x2164218:     d4c18493     addi s1, gp, -692
0x216421c:     0004a783     lw a5, 0(s1)
0x2164220:     00078e63     beq a5, zero, 28
0x2164224:     00c12083     lw ra, 12(sp)
0x2164228:     00f42023     sw a5, 0(s0)
0x216422c:     00812403     lw s0, 8(sp)
0x2164230:     00412483     lw s1, 4(sp)
0x2164234:     01010113     addi sp, sp, 16
0x2164238:     00008067     jalr zero, 0(ra)
0x216423c:     00c12083     lw ra, 12(sp)
0x2164240:     00812403     lw s0, 8(sp)
0x2164244:     00412483     lw s1, 4(sp)
0x2164248:     01010113     addi sp, sp, 16
0x216424c:     00008067     jalr zero, 0(ra)
0x2164250:     ff010113     addi sp, sp, -16
0x2164254:     00812423     sw s0, 8(sp)
0x2164258:     00001797     auipc a5, 1
0x216425c:     2bc78793     addi a5, a5, 700
0x2164260:     00001417     auipc s0, 1
0x2164264:     2b840413     addi s0, s0, 696
0x2164268:     40f40433     sub s0, s0, a5
0x216426c:     00912223     sw s1, 4(sp)
0x2164270:     00112623     sw ra, 12(sp)
0x2164274:     40245493     srli s1, s0, 1026
0x2164278:     02048063     beq s1, zero, 32
0x216427c:     ffc40413     addi s0, s0, -4
0x2164280:     00f40433     add s0, s0, a5
0x2164284:     00042783     lw a5, 0(s0)
0x2164288:     fff48493     addi s1, s1, -1
0x216428c:     ffc40413     addi s0, s0, -4
0x2164290:     000780e7     jalr ra, 0(a5)
0x2164294:     fe0498e3     bne s1, zero, -16
0x2164298:     00c12083     lw ra, 12(sp)
0x216429c:     00812403     lw s0, 8(sp)
0x21642a0:     00412483     lw s1, 4(sp)
0x21642a4:     01010113     addi sp, sp, 16
0x21642a8:     00008067     jalr zero, 0(ra)
0x21642ac:     d5018713     addi a4, gp, -688
0x21642b0:     00072783     lw a5, 0(a4)
0x21642b4:     04078c63     beq a5, zero, 88
0x21642b8:     0047a703     lw a4, 4(a5)
0x21642bc:     01f00813     addi a6, zero, 31
0x21642c0:     06e84e63     blt a6, a4, 124
0x21642c4:     00271813     slli a6, a4, 2
0x21642c8:     02050663     beq a0, zero, 44
0x21642cc:     01078333     add t1, a5, a6
0x21642d0:     08c32423     sw a2, 136(t1)
0x21642d4:     1887a883     lw a7, 392(a5)
0x21642d8:     00100613     addi a2, zero, 1
0x21642dc:     00e61633     sll a2, a2, a4
0x21642e0:     00c8e8b3     or a7, a7, a2
0x21642e4:     1917a423     sw a7, 392(a5)
0x21642e8:     10d32423     sw a3, 264(t1)
0x21642ec:     00200693     addi a3, zero, 2
0x21642f0:     02d50463     beq a0, a3, 40
0x21642f4:     00170713     addi a4, a4, 1
0x21642f8:     00e7a223     sw a4, 4(a5)
0x21642fc:     010787b3     add a5, a5, a6
0x2164300:     00b7a423     sw a1, 8(a5)
0x2164304:     00000513     addi a0, zero, 0
0x2164308:     00008067     jalr zero, 0(ra)
0x216430c:     ee018793     addi a5, gp, -288
0x2164310:     00f72023     sw a5, 0(a4)
0x2164314:     fa5ff06f     jal zero, -92
0x2164318:     18c7a683     lw a3, 396(a5)
0x216431c:     00170713     addi a4, a4, 1
0x2164320:     00e7a223     sw a4, 4(a5)
0x2164324:     00c6e6b3     or a3, a3, a2
0x2164328:     18d7a623     sw a3, 396(a5)
0x216432c:     010787b3     add a5, a5, a6
0x2164330:     00b7a423     sw a1, 8(a5)
0x2164334:     00000513     addi a0, zero, 0
0x2164338:     00008067     jalr zero, 0(ra)
0x216433c:     fff00513     addi a0, zero, -1
0x2164340:     00008067     jalr zero, 0(ra)
0x2164344:     ff010113     addi sp, sp, -16
0x2164348:     00112623     sw ra, 12(sp)
0x216434c:     00812423     sw s0, 8(sp)
0x2164350:     03900893     addi a7, zero, 57
0x2164354:     00000073     ecall
0x2164358:     00050413     addi s0, a0, 0
0x216435c:     00054c63     blt a0, zero, 24
0x2164360:     00c12083     lw ra, 12(sp)
0x2164364:     00040513     addi a0, s0, 0
0x2164368:     00812403     lw s0, 8(sp)
0x216436c:     01010113     addi sp, sp, 16
0x2164370:     00008067     jalr zero, 0(ra)
0x2164374:     40800433     sub s0, zero, s0
0x2164378:     188000ef     jal ra, 392
0x216437c:     00852023     sw s0, 0(a0)
0x2164380:     fff00413     addi s0, zero, -1
0x2164384:     fddff06f     jal zero, -36
0x2164388:     05d00893     addi a7, zero, 93
0x216438c:     00000073     ecall
0x2164390:     00054463     blt a0, zero, 8
0x2164394:     0000006f     jal zero, 0
0x2164398:     ff010113     addi sp, sp, -16
0x216439c:     00812423     sw s0, 8(sp)
0x21643a0:     00050413     addi s0, a0, 0
0x21643a4:     00112623     sw ra, 12(sp)
0x21643a8:     40800433     sub s0, zero, s0
0x21643ac:     154000ef     jal ra, 340
0x21643b0:     00852023     sw s0, 0(a0)
0x21643b4:     0000006f     jal zero, 0
0x21643b8:     ff010113     addi sp, sp, -16
0x21643bc:     00112623     sw ra, 12(sp)
0x21643c0:     00812423     sw s0, 8(sp)
0x21643c4:     03e00893     addi a7, zero, 62
0x21643c8:     00000073     ecall
0x21643cc:     00050413     addi s0, a0, 0
0x21643d0:     00054c63     blt a0, zero, 24
0x21643d4:     00c12083     lw ra, 12(sp)
0x21643d8:     00040513     addi a0, s0, 0
0x21643dc:     00812403     lw s0, 8(sp)
0x21643e0:     01010113     addi sp, sp, 16
0x21643e4:     00008067     jalr zero, 0(ra)
0x21643e8:     40800433     sub s0, zero, s0
0x21643ec:     114000ef     jal ra, 276
0x21643f0:     00852023     sw s0, 0(a0)
0x21643f4:     fff00413     addi s0, zero, -1
0x21643f8:     fddff06f     jal zero, -36
0x21643fc:     ff010113     addi sp, sp, -16
0x2164400:     00112623     sw ra, 12(sp)
0x2164404:     00812423     sw s0, 8(sp)
0x2164408:     03f00893     addi a7, zero, 63
0x216440c:     00000073     ecall
0x2164410:     00050413     addi s0, a0, 0
0x2164414:     00054c63     blt a0, zero, 24
0x2164418:     00c12083     lw ra, 12(sp)
0x216441c:     00040513     addi a0, s0, 0
0x2164420:     00812403     lw s0, 8(sp)
0x2164424:     01010113     addi sp, sp, 16
0x2164428:     00008067     jalr zero, 0(ra)
0x216442c:     40800433     sub s0, zero, s0
0x2164430:     0d0000ef     jal ra, 208
0x2164434:     00852023     sw s0, 0(a0)
0x2164438:     fff00413     addi s0, zero, -1
0x216443c:     fddff06f     jal zero, -36
0x2164440:     d6018693     addi a3, gp, -672
0x2164444:     0006a703     lw a4, 0(a3)
0x2164448:     ff010113     addi sp, sp, -16
0x216444c:     00112623     sw ra, 12(sp)
0x2164450:     00050793     addi a5, a0, 0
0x2164454:     02071063     bne a4, zero, 32
0x2164458:     0d600893     addi a7, zero, 214
0x216445c:     00000513     addi a0, zero, 0
0x2164460:     00000073     ecall
0x2164464:     fff00613     addi a2, zero, -1
0x2164468:     00050713     addi a4, a0, 0
0x216446c:     02c50a63     beq a0, a2, 52
0x2164470:     00a6a023     sw a0, 0(a3)
0x2164474:     00e78533     add a0, a5, a4
0x2164478:     0d600893     addi a7, zero, 214
0x216447c:     00000073     ecall
0x2164480:     0006a703     lw a4, 0(a3)
0x2164484:     00e787b3     add a5, a5, a4
0x2164488:     00f51c63     bne a0, a5, 24
0x216448c:     00c12083     lw ra, 12(sp)
0x2164490:     00a6a023     sw a0, 0(a3)
0x2164494:     00070513     addi a0, a4, 0
0x2164498:     01010113     addi sp, sp, 16
0x216449c:     00008067     jalr zero, 0(ra)
0x21644a0:     060000ef     jal ra, 96
0x21644a4:     00c12083     lw ra, 12(sp)
0x21644a8:     00c00793     addi a5, zero, 12
0x21644ac:     00f52023     sw a5, 0(a0)
0x21644b0:     fff00513     addi a0, zero, -1
0x21644b4:     01010113     addi sp, sp, 16
0x21644b8:     00008067     jalr zero, 0(ra)
0x21644bc:     ff010113     addi sp, sp, -16
0x21644c0:     00112623     sw ra, 12(sp)
0x21644c4:     00812423     sw s0, 8(sp)
0x21644c8:     04000893     addi a7, zero, 64
0x21644cc:     00000073     ecall
0x21644d0:     00050413     addi s0, a0, 0
0x21644d4:     00054c63     blt a0, zero, 24
0x21644d8:     00c12083     lw ra, 12(sp)
0x21644dc:     00040513     addi a0, s0, 0
0x21644e0:     00812403     lw s0, 8(sp)
0x21644e4:     01010113     addi sp, sp, 16
0x21644e8:     00008067     jalr zero, 0(ra)
0x21644ec:     40800433     sub s0, zero, s0
0x21644f0:     010000ef     jal ra, 16
0x21644f4:     00852023     sw s0, 0(a0)
0x21644f8:     fff00413     addi s0, zero, -1
0x21644fc:     fddff06f     jal zero, -36
0x2164500:     d3c1a503     lw a0, -708(gp)
0x2164504:     00008067     jalr zero, 0(ra)
